(lp0
(imeasurement.lib.pulsar.pulsar
Sequence
p1
(dp2
S'elements'
p3
(lp4
(dp5
S'trigger_wait'
p6
I01
sS'name'
p7
S'MBI_0'
p8
sS'repetitions'
p9
I1
sS'wfname'
p10
g8
sS'goto_target'
p11
g8
sS'jump_target'
p12
S'C_MBI_4_y_pt0_tau_0_N_0'
p13
sa(dp14
g6
I01
sg7
g13
sg9
I1
sg10
g13
sg11
Nsg12
Nsa(dp15
g6
I00
sg7
S'C_MBI_4_Ren_a_pt0_X_Initial_DD_El_tau_N_ 6406_34'
p16
sg9
F4.0
sg10
S'C_MBI_4_Ren_a_pt0_Rep_elt_DD_tau_6406_N_34'
p17
sg11
Nsg12
Nsa(dp18
g6
I00
sg7
S'C_MBI_4_Ren_a_pt0_X_Initial_DD_El_tau_N_ 6406_34_'
p19
sg9
I1
sg10
g16
sg11
Nsg12
Nsa(dp20
g6
I00
sg7
S'C_MBI_4_Ren_a_pt0_Rep_elt_DD_tau_6406_N_34_1'
p21
sg9
F8.0
sg10
g17
sg11
Nsg12
Nsa(dp22
g6
I00
sg7
S'C_MBI_4_Ren_a_pt0_Y_Rep_DD_El_tau_N_ 6406_341'
p23
sg9
I1
sg10
S'C_MBI_4_Ren_a_pt0_Y_Rep_DD_El_tau_N_ 6406_34'
p24
sg11
Nsg12
Nsa(dp25
g6
I00
sg7
S'C_MBI_4_Ren_a_pt0_Rep_elt_DD_tau_6406_N_34_2'
p26
sg9
F8.0
sg10
g17
sg11
Nsg12
Nsa(dp27
g6
I00
sg7
S'C_MBI_4_Ren_a_pt0_X_Rep_DD_El_tau_N_ 6406_342'
p28
sg9
I1
sg10
S'C_MBI_4_Ren_a_pt0_X_Rep_DD_El_tau_N_ 6406_34'
p29
sg11
Nsg12
Nsa(dp30
g6
I00
sg7
S'C_MBI_4_Ren_a_pt0_Rep_elt_DD_tau_6406_N_34_3'
p31
sg9
F8.0
sg10
g17
sg11
Nsg12
Nsa(dp32
g6
I00
sg7
S'C_MBI_4_Ren_a_pt0_Y_Rep_DD_El_tau_N_ 6406_343'
p33
sg9
I1
sg10
g24
sg11
Nsg12
Nsa(dp34
g6
I00
sg7
S'C_MBI_4_Ren_a_pt0_Rep_elt_DD_tau_6406_N_34_4'
p35
sg9
F8.0
sg10
g17
sg11
Nsg12
Nsa(dp36
g6
I00
sg7
S'C_MBI_4_Ren_a_pt0_Y_Rep_DD_El_tau_N_ 6406_344'
p37
sg9
I1
sg10
g24
sg11
Nsg12
Nsa(dp38
g6
I00
sg7
S'C_MBI_4_Ren_a_pt0_Rep_elt_DD_tau_6406_N_34_5'
p39
sg9
F8.0
sg10
g17
sg11
Nsg12
Nsa(dp40
g6
I00
sg7
S'C_MBI_4_Ren_a_pt0_X_Rep_DD_El_tau_N_ 6406_345'
p41
sg9
I1
sg10
g29
sg11
Nsg12
Nsa(dp42
g6
I00
sg7
S'C_MBI_4_Ren_a_pt0_Rep_elt_DD_tau_6406_N_34_6'
p43
sg9
F8.0
sg10
g17
sg11
Nsg12
Nsa(dp44
g6
I00
sg7
S'C_MBI_4_Ren_a_pt0_Y_Rep_DD_El_tau_N_ 6406_346'
p45
sg9
I1
sg10
g24
sg11
Nsg12
Nsa(dp46
g6
I00
sg7
S'C_MBI_4_Ren_a_pt0_Rep_elt_DD_tau_6406_N_34_7'
p47
sg9
F8.0
sg10
g17
sg11
Nsg12
Nsa(dp48
g6
I00
sg7
S'C_MBI_4_Ren_a_pt0_X_Rep_DD_El_tau_N_ 6406_347'
p49
sg9
I1
sg10
g29
sg11
Nsg12
Nsa(dp50
g6
I00
sg7
S'C_MBI_4_Ren_a_pt0_Rep_elt_DD_tau_6406_N_34_8'
p51
sg9
F8.0
sg10
g17
sg11
Nsg12
Nsa(dp52
g6
I00
sg7
S'C_MBI_4_Ren_a_pt0_X_Rep_DD_El_tau_N_ 6406_348'
p53
sg9
I1
sg10
g29
sg11
Nsg12
Nsa(dp54
g6
I00
sg7
S'C_MBI_4_Ren_a_pt0_Rep_elt_DD_tau_6406_N_34_9'
p55
sg9
F8.0
sg10
g17
sg11
Nsg12
Nsa(dp56
g6
I00
sg7
S'C_MBI_4_Ren_a_pt0_Y_Rep_DD_El_tau_N_ 6406_349'
p57
sg9
I1
sg10
g24
sg11
Nsg12
Nsa(dp58
g6
I00
sg7
S'C_MBI_4_Ren_a_pt0_Rep_elt_DD_tau_6406_N_34_10'
p59
sg9
F8.0
sg10
g17
sg11
Nsg12
Nsa(dp60
g6
I00
sg7
S'C_MBI_4_Ren_a_pt0_X_Rep_DD_El_tau_N_ 6406_3410'
p61
sg9
I1
sg10
g29
sg11
Nsg12
Nsa(dp62
g6
I00
sg7
S'C_MBI_4_Ren_a_pt0_Rep_elt_DD_tau_6406_N_34_11'
p63
sg9
F8.0
sg10
g17
sg11
Nsg12
Nsa(dp64
g6
I00
sg7
S'C_MBI_4_Ren_a_pt0_Y_Rep_DD_El_tau_N_ 6406_3411'
p65
sg9
I1
sg10
g24
sg11
Nsg12
Nsa(dp66
g6
I00
sg7
S'C_MBI_4_Ren_a_pt0_Rep_elt_DD_tau_6406_N_34_12'
p67
sg9
F8.0
sg10
g17
sg11
Nsg12
Nsa(dp68
g6
I00
sg7
S'C_MBI_4_Ren_a_pt0_Y_Rep_DD_El_tau_N_ 6406_3412'
p69
sg9
I1
sg10
g24
sg11
Nsg12
Nsa(dp70
g6
I00
sg7
S'C_MBI_4_Ren_a_pt0_Rep_elt_DD_tau_6406_N_34_13'
p71
sg9
F8.0
sg10
g17
sg11
Nsg12
Nsa(dp72
g6
I00
sg7
S'C_MBI_4_Ren_a_pt0_X_Rep_DD_El_tau_N_ 6406_3413'
p73
sg9
I1
sg10
g29
sg11
Nsg12
Nsa(dp74
g6
I00
sg7
S'C_MBI_4_Ren_a_pt0_Rep_elt_DD_tau_6406_N_34_14'
p75
sg9
F8.0
sg10
g17
sg11
Nsg12
Nsa(dp76
g6
I00
sg7
S'C_MBI_4_Ren_a_pt0_Y_Rep_DD_El_tau_N_ 6406_3414'
p77
sg9
I1
sg10
g24
sg11
Nsg12
Nsa(dp78
g6
I00
sg7
S'C_MBI_4_Ren_a_pt0_Rep_elt_DD_tau_6406_N_34_15'
p79
sg9
F8.0
sg10
g17
sg11
Nsg12
Nsa(dp80
g6
I00
sg7
S'C_MBI_4_Ren_a_pt0_X_Rep_DD_El_tau_N_ 6406_3415'
p81
sg9
I1
sg10
g29
sg11
Nsg12
Nsa(dp82
g6
I00
sg7
S'C_MBI_4_Ren_a_pt0_Rep_elt_DD_tau_6406_N_34_16'
p83
sg9
F8.0
sg10
g17
sg11
Nsg12
Nsa(dp84
g6
I00
sg7
S'C_MBI_4_Ren_a_pt0_X_Rep_DD_El_tau_N_ 6406_3416'
p85
sg9
I1
sg10
g29
sg11
Nsg12
Nsa(dp86
g6
I00
sg7
S'C_MBI_4_Ren_a_pt0_Rep_elt_DD_tau_6406_N_34_17'
p87
sg9
F8.0
sg10
g17
sg11
Nsg12
Nsa(dp88
g6
I00
sg7
S'C_MBI_4_Ren_a_pt0_Y_Rep_DD_El_tau_N_ 6406_3417'
p89
sg9
I1
sg10
g24
sg11
Nsg12
Nsa(dp90
g6
I00
sg7
S'C_MBI_4_Ren_a_pt0_Rep_elt_DD_tau_6406_N_34_18'
p91
sg9
F8.0
sg10
g17
sg11
Nsg12
Nsa(dp92
g6
I00
sg7
S'C_MBI_4_Ren_a_pt0_X_Rep_DD_El_tau_N_ 6406_3418'
p93
sg9
I1
sg10
g29
sg11
Nsg12
Nsa(dp94
g6
I00
sg7
S'C_MBI_4_Ren_a_pt0_Rep_elt_DD_tau_6406_N_34_19'
p95
sg9
F8.0
sg10
g17
sg11
Nsg12
Nsa(dp96
g6
I00
sg7
S'C_MBI_4_Ren_a_pt0_Y_Rep_DD_El_tau_N_ 6406_3419'
p97
sg9
I1
sg10
g24
sg11
Nsg12
Nsa(dp98
g6
I00
sg7
S'C_MBI_4_Ren_a_pt0_Rep_elt_DD_tau_6406_N_34_20'
p99
sg9
F8.0
sg10
g17
sg11
Nsg12
Nsa(dp100
g6
I00
sg7
S'C_MBI_4_Ren_a_pt0_Y_Rep_DD_El_tau_N_ 6406_3420'
p101
sg9
I1
sg10
g24
sg11
Nsg12
Nsa(dp102
g6
I00
sg7
S'C_MBI_4_Ren_a_pt0_Rep_elt_DD_tau_6406_N_34_21'
p103
sg9
F8.0
sg10
g17
sg11
Nsg12
Nsa(dp104
g6
I00
sg7
S'C_MBI_4_Ren_a_pt0_X_Rep_DD_El_tau_N_ 6406_3421'
p105
sg9
I1
sg10
g29
sg11
Nsg12
Nsa(dp106
g6
I00
sg7
S'C_MBI_4_Ren_a_pt0_Rep_elt_DD_tau_6406_N_34_22'
p107
sg9
F8.0
sg10
g17
sg11
Nsg12
Nsa(dp108
g6
I00
sg7
S'C_MBI_4_Ren_a_pt0_Y_Rep_DD_El_tau_N_ 6406_3422'
p109
sg9
I1
sg10
g24
sg11
Nsg12
Nsa(dp110
g6
I00
sg7
S'C_MBI_4_Ren_a_pt0_Rep_elt_DD_tau_6406_N_34_23'
p111
sg9
F8.0
sg10
g17
sg11
Nsg12
Nsa(dp112
g6
I00
sg7
S'C_MBI_4_Ren_a_pt0_X_Rep_DD_El_tau_N_ 6406_3423'
p113
sg9
I1
sg10
g29
sg11
Nsg12
Nsa(dp114
g6
I00
sg7
S'C_MBI_4_Ren_a_pt0_Rep_elt_DD_tau_6406_N_34_24'
p115
sg9
F8.0
sg10
g17
sg11
Nsg12
Nsa(dp116
g6
I00
sg7
S'C_MBI_4_Ren_a_pt0_X_Rep_DD_El_tau_N_ 6406_3424'
p117
sg9
I1
sg10
g29
sg11
Nsg12
Nsa(dp118
g6
I00
sg7
S'C_MBI_4_Ren_a_pt0_Rep_elt_DD_tau_6406_N_34_25'
p119
sg9
F8.0
sg10
g17
sg11
Nsg12
Nsa(dp120
g6
I00
sg7
S'C_MBI_4_Ren_a_pt0_Y_Rep_DD_El_tau_N_ 6406_3425'
p121
sg9
I1
sg10
g24
sg11
Nsg12
Nsa(dp122
g6
I00
sg7
S'C_MBI_4_Ren_a_pt0_Rep_elt_DD_tau_6406_N_34_26'
p123
sg9
F8.0
sg10
g17
sg11
Nsg12
Nsa(dp124
g6
I00
sg7
S'C_MBI_4_Ren_a_pt0_X_Rep_DD_El_tau_N_ 6406_3426'
p125
sg9
I1
sg10
g29
sg11
Nsg12
Nsa(dp126
g6
I00
sg7
S'C_MBI_4_Ren_a_pt0_Rep_elt_DD_tau_6406_N_34_27'
p127
sg9
F8.0
sg10
g17
sg11
Nsg12
Nsa(dp128
g6
I00
sg7
S'C_MBI_4_Ren_a_pt0_Y_Rep_DD_El_tau_N_ 6406_3427'
p129
sg9
I1
sg10
g24
sg11
Nsg12
Nsa(dp130
g6
I00
sg7
S'C_MBI_4_Ren_a_pt0_Rep_elt_DD_tau_6406_N_34_28'
p131
sg9
F8.0
sg10
g17
sg11
Nsg12
Nsa(dp132
g6
I00
sg7
S'C_MBI_4_Ren_a_pt0_Y_Rep_DD_El_tau_N_ 6406_3428'
p133
sg9
I1
sg10
g24
sg11
Nsg12
Nsa(dp134
g6
I00
sg7
S'C_MBI_4_Ren_a_pt0_Rep_elt_DD_tau_6406_N_34_29'
p135
sg9
F8.0
sg10
g17
sg11
Nsg12
Nsa(dp136
g6
I00
sg7
S'C_MBI_4_Ren_a_pt0_X_Rep_DD_El_tau_N_ 6406_3429'
p137
sg9
I1
sg10
g29
sg11
Nsg12
Nsa(dp138
g6
I00
sg7
S'C_MBI_4_Ren_a_pt0_Rep_elt_DD_tau_6406_N_34_30'
p139
sg9
F8.0
sg10
g17
sg11
Nsg12
Nsa(dp140
g6
I00
sg7
S'C_MBI_4_Ren_a_pt0_Y_Rep_DD_El_tau_N_ 6406_3430'
p141
sg9
I1
sg10
g24
sg11
Nsg12
Nsa(dp142
g6
I00
sg7
S'C_MBI_4_Ren_a_pt0_Rep_elt_DD_tau_6406_N_34_31'
p143
sg9
F8.0
sg10
g17
sg11
Nsg12
Nsa(dp144
g6
I00
sg7
S'C_MBI_4_Ren_a_pt0_X_Rep_DD_El_tau_N_ 6406_3431'
p145
sg9
I1
sg10
g29
sg11
Nsg12
Nsa(dp146
g6
I00
sg7
S'C_MBI_4_Ren_a_pt0_Rep_elt_DD_tau_6406_N_34_32'
p147
sg9
F8.0
sg10
g17
sg11
Nsg12
Nsa(dp148
g6
I00
sg7
S'C_MBI_4_Ren_a_pt0_X_Rep_DD_El_tau_N_ 6406_3432'
p149
sg9
I1
sg10
g29
sg11
Nsg12
Nsa(dp150
g6
I00
sg7
S'C_MBI_4_Ren_a_pt0_Rep_elt_DD_tau_6406_N_34_33'
p151
sg9
F8.0
sg10
g17
sg11
Nsg12
Nsa(dp152
g6
I00
sg7
S'C_MBI_4_Ren_a_pt0_mX_Final_DD_El_tau_N_6406_34'
p153
sg9
I1
sg10
g153
sg11
Nsg12
Nsa(dp154
g6
I00
sg7
S'C_MBI_4_Ren_a_pt0_Rep_elt_DD_tau_6406_N_3434'
p155
sg9
F4.0
sg10
g17
sg11
Nsg12
Nsa(dp156
g6
I00
sg7
S'C_MBI_4_x_pt0_tau_0_N_0'
p157
sg9
I1
sg10
g157
sg11
Nsg12
Nsa(dp158
g6
I00
sg7
S'C_MBI_4_RO_trig_pt0'
p159
sg9
I1
sg10
g159
sg11
g8
sg12
S'Tomo_y_pi2_init0_tau_0_N_0'
p160
sa(dp161
g6
I00
sg7
g160
sg9
I1
sg10
g160
sg11
Nsg12
Nsa(dp162
g6
I00
sg7
S'Tomo4_Ren_b_0_X_Initial_DD_El_tau_N_ 6406_34'
p163
sg9
F4.0
sg10
S'Tomo4_Ren_b_0_Rep_elt_DD_tau_6406_N_34'
p164
sg11
Nsg12
Nsa(dp165
g6
I00
sg7
S'Tomo4_Ren_b_0_X_Initial_DD_El_tau_N_ 6406_34_'
p166
sg9
I1
sg10
g163
sg11
Nsg12
Nsa(dp167
g6
I00
sg7
S'Tomo4_Ren_b_0_Rep_elt_DD_tau_6406_N_34_1'
p168
sg9
F8.0
sg10
g164
sg11
Nsg12
Nsa(dp169
g6
I00
sg7
S'Tomo4_Ren_b_0_Y_Rep_DD_El_tau_N_ 6406_341'
p170
sg9
I1
sg10
S'Tomo4_Ren_b_0_Y_Rep_DD_El_tau_N_ 6406_34'
p171
sg11
Nsg12
Nsa(dp172
g6
I00
sg7
S'Tomo4_Ren_b_0_Rep_elt_DD_tau_6406_N_34_2'
p173
sg9
F8.0
sg10
g164
sg11
Nsg12
Nsa(dp174
g6
I00
sg7
S'Tomo4_Ren_b_0_X_Rep_DD_El_tau_N_ 6406_342'
p175
sg9
I1
sg10
S'Tomo4_Ren_b_0_X_Rep_DD_El_tau_N_ 6406_34'
p176
sg11
Nsg12
Nsa(dp177
g6
I00
sg7
S'Tomo4_Ren_b_0_Rep_elt_DD_tau_6406_N_34_3'
p178
sg9
F8.0
sg10
g164
sg11
Nsg12
Nsa(dp179
g6
I00
sg7
S'Tomo4_Ren_b_0_Y_Rep_DD_El_tau_N_ 6406_343'
p180
sg9
I1
sg10
g171
sg11
Nsg12
Nsa(dp181
g6
I00
sg7
S'Tomo4_Ren_b_0_Rep_elt_DD_tau_6406_N_34_4'
p182
sg9
F8.0
sg10
g164
sg11
Nsg12
Nsa(dp183
g6
I00
sg7
S'Tomo4_Ren_b_0_Y_Rep_DD_El_tau_N_ 6406_344'
p184
sg9
I1
sg10
g171
sg11
Nsg12
Nsa(dp185
g6
I00
sg7
S'Tomo4_Ren_b_0_Rep_elt_DD_tau_6406_N_34_5'
p186
sg9
F8.0
sg10
g164
sg11
Nsg12
Nsa(dp187
g6
I00
sg7
S'Tomo4_Ren_b_0_X_Rep_DD_El_tau_N_ 6406_345'
p188
sg9
I1
sg10
g176
sg11
Nsg12
Nsa(dp189
g6
I00
sg7
S'Tomo4_Ren_b_0_Rep_elt_DD_tau_6406_N_34_6'
p190
sg9
F8.0
sg10
g164
sg11
Nsg12
Nsa(dp191
g6
I00
sg7
S'Tomo4_Ren_b_0_Y_Rep_DD_El_tau_N_ 6406_346'
p192
sg9
I1
sg10
g171
sg11
Nsg12
Nsa(dp193
g6
I00
sg7
S'Tomo4_Ren_b_0_Rep_elt_DD_tau_6406_N_34_7'
p194
sg9
F8.0
sg10
g164
sg11
Nsg12
Nsa(dp195
g6
I00
sg7
S'Tomo4_Ren_b_0_X_Rep_DD_El_tau_N_ 6406_347'
p196
sg9
I1
sg10
g176
sg11
Nsg12
Nsa(dp197
g6
I00
sg7
S'Tomo4_Ren_b_0_Rep_elt_DD_tau_6406_N_34_8'
p198
sg9
F8.0
sg10
g164
sg11
Nsg12
Nsa(dp199
g6
I00
sg7
S'Tomo4_Ren_b_0_X_Rep_DD_El_tau_N_ 6406_348'
p200
sg9
I1
sg10
g176
sg11
Nsg12
Nsa(dp201
g6
I00
sg7
S'Tomo4_Ren_b_0_Rep_elt_DD_tau_6406_N_34_9'
p202
sg9
F8.0
sg10
g164
sg11
Nsg12
Nsa(dp203
g6
I00
sg7
S'Tomo4_Ren_b_0_Y_Rep_DD_El_tau_N_ 6406_349'
p204
sg9
I1
sg10
g171
sg11
Nsg12
Nsa(dp205
g6
I00
sg7
S'Tomo4_Ren_b_0_Rep_elt_DD_tau_6406_N_34_10'
p206
sg9
F8.0
sg10
g164
sg11
Nsg12
Nsa(dp207
g6
I00
sg7
S'Tomo4_Ren_b_0_X_Rep_DD_El_tau_N_ 6406_3410'
p208
sg9
I1
sg10
g176
sg11
Nsg12
Nsa(dp209
g6
I00
sg7
S'Tomo4_Ren_b_0_Rep_elt_DD_tau_6406_N_34_11'
p210
sg9
F8.0
sg10
g164
sg11
Nsg12
Nsa(dp211
g6
I00
sg7
S'Tomo4_Ren_b_0_Y_Rep_DD_El_tau_N_ 6406_3411'
p212
sg9
I1
sg10
g171
sg11
Nsg12
Nsa(dp213
g6
I00
sg7
S'Tomo4_Ren_b_0_Rep_elt_DD_tau_6406_N_34_12'
p214
sg9
F8.0
sg10
g164
sg11
Nsg12
Nsa(dp215
g6
I00
sg7
S'Tomo4_Ren_b_0_Y_Rep_DD_El_tau_N_ 6406_3412'
p216
sg9
I1
sg10
g171
sg11
Nsg12
Nsa(dp217
g6
I00
sg7
S'Tomo4_Ren_b_0_Rep_elt_DD_tau_6406_N_34_13'
p218
sg9
F8.0
sg10
g164
sg11
Nsg12
Nsa(dp219
g6
I00
sg7
S'Tomo4_Ren_b_0_X_Rep_DD_El_tau_N_ 6406_3413'
p220
sg9
I1
sg10
g176
sg11
Nsg12
Nsa(dp221
g6
I00
sg7
S'Tomo4_Ren_b_0_Rep_elt_DD_tau_6406_N_34_14'
p222
sg9
F8.0
sg10
g164
sg11
Nsg12
Nsa(dp223
g6
I00
sg7
S'Tomo4_Ren_b_0_Y_Rep_DD_El_tau_N_ 6406_3414'
p224
sg9
I1
sg10
g171
sg11
Nsg12
Nsa(dp225
g6
I00
sg7
S'Tomo4_Ren_b_0_Rep_elt_DD_tau_6406_N_34_15'
p226
sg9
F8.0
sg10
g164
sg11
Nsg12
Nsa(dp227
g6
I00
sg7
S'Tomo4_Ren_b_0_X_Rep_DD_El_tau_N_ 6406_3415'
p228
sg9
I1
sg10
g176
sg11
Nsg12
Nsa(dp229
g6
I00
sg7
S'Tomo4_Ren_b_0_Rep_elt_DD_tau_6406_N_34_16'
p230
sg9
F8.0
sg10
g164
sg11
Nsg12
Nsa(dp231
g6
I00
sg7
S'Tomo4_Ren_b_0_X_Rep_DD_El_tau_N_ 6406_3416'
p232
sg9
I1
sg10
g176
sg11
Nsg12
Nsa(dp233
g6
I00
sg7
S'Tomo4_Ren_b_0_Rep_elt_DD_tau_6406_N_34_17'
p234
sg9
F8.0
sg10
g164
sg11
Nsg12
Nsa(dp235
g6
I00
sg7
S'Tomo4_Ren_b_0_Y_Rep_DD_El_tau_N_ 6406_3417'
p236
sg9
I1
sg10
g171
sg11
Nsg12
Nsa(dp237
g6
I00
sg7
S'Tomo4_Ren_b_0_Rep_elt_DD_tau_6406_N_34_18'
p238
sg9
F8.0
sg10
g164
sg11
Nsg12
Nsa(dp239
g6
I00
sg7
S'Tomo4_Ren_b_0_X_Rep_DD_El_tau_N_ 6406_3418'
p240
sg9
I1
sg10
g176
sg11
Nsg12
Nsa(dp241
g6
I00
sg7
S'Tomo4_Ren_b_0_Rep_elt_DD_tau_6406_N_34_19'
p242
sg9
F8.0
sg10
g164
sg11
Nsg12
Nsa(dp243
g6
I00
sg7
S'Tomo4_Ren_b_0_Y_Rep_DD_El_tau_N_ 6406_3419'
p244
sg9
I1
sg10
g171
sg11
Nsg12
Nsa(dp245
g6
I00
sg7
S'Tomo4_Ren_b_0_Rep_elt_DD_tau_6406_N_34_20'
p246
sg9
F8.0
sg10
g164
sg11
Nsg12
Nsa(dp247
g6
I00
sg7
S'Tomo4_Ren_b_0_Y_Rep_DD_El_tau_N_ 6406_3420'
p248
sg9
I1
sg10
g171
sg11
Nsg12
Nsa(dp249
g6
I00
sg7
S'Tomo4_Ren_b_0_Rep_elt_DD_tau_6406_N_34_21'
p250
sg9
F8.0
sg10
g164
sg11
Nsg12
Nsa(dp251
g6
I00
sg7
S'Tomo4_Ren_b_0_X_Rep_DD_El_tau_N_ 6406_3421'
p252
sg9
I1
sg10
g176
sg11
Nsg12
Nsa(dp253
g6
I00
sg7
S'Tomo4_Ren_b_0_Rep_elt_DD_tau_6406_N_34_22'
p254
sg9
F8.0
sg10
g164
sg11
Nsg12
Nsa(dp255
g6
I00
sg7
S'Tomo4_Ren_b_0_Y_Rep_DD_El_tau_N_ 6406_3422'
p256
sg9
I1
sg10
g171
sg11
Nsg12
Nsa(dp257
g6
I00
sg7
S'Tomo4_Ren_b_0_Rep_elt_DD_tau_6406_N_34_23'
p258
sg9
F8.0
sg10
g164
sg11
Nsg12
Nsa(dp259
g6
I00
sg7
S'Tomo4_Ren_b_0_X_Rep_DD_El_tau_N_ 6406_3423'
p260
sg9
I1
sg10
g176
sg11
Nsg12
Nsa(dp261
g6
I00
sg7
S'Tomo4_Ren_b_0_Rep_elt_DD_tau_6406_N_34_24'
p262
sg9
F8.0
sg10
g164
sg11
Nsg12
Nsa(dp263
g6
I00
sg7
S'Tomo4_Ren_b_0_X_Rep_DD_El_tau_N_ 6406_3424'
p264
sg9
I1
sg10
g176
sg11
Nsg12
Nsa(dp265
g6
I00
sg7
S'Tomo4_Ren_b_0_Rep_elt_DD_tau_6406_N_34_25'
p266
sg9
F8.0
sg10
g164
sg11
Nsg12
Nsa(dp267
g6
I00
sg7
S'Tomo4_Ren_b_0_Y_Rep_DD_El_tau_N_ 6406_3425'
p268
sg9
I1
sg10
g171
sg11
Nsg12
Nsa(dp269
g6
I00
sg7
S'Tomo4_Ren_b_0_Rep_elt_DD_tau_6406_N_34_26'
p270
sg9
F8.0
sg10
g164
sg11
Nsg12
Nsa(dp271
g6
I00
sg7
S'Tomo4_Ren_b_0_X_Rep_DD_El_tau_N_ 6406_3426'
p272
sg9
I1
sg10
g176
sg11
Nsg12
Nsa(dp273
g6
I00
sg7
S'Tomo4_Ren_b_0_Rep_elt_DD_tau_6406_N_34_27'
p274
sg9
F8.0
sg10
g164
sg11
Nsg12
Nsa(dp275
g6
I00
sg7
S'Tomo4_Ren_b_0_Y_Rep_DD_El_tau_N_ 6406_3427'
p276
sg9
I1
sg10
g171
sg11
Nsg12
Nsa(dp277
g6
I00
sg7
S'Tomo4_Ren_b_0_Rep_elt_DD_tau_6406_N_34_28'
p278
sg9
F8.0
sg10
g164
sg11
Nsg12
Nsa(dp279
g6
I00
sg7
S'Tomo4_Ren_b_0_Y_Rep_DD_El_tau_N_ 6406_3428'
p280
sg9
I1
sg10
g171
sg11
Nsg12
Nsa(dp281
g6
I00
sg7
S'Tomo4_Ren_b_0_Rep_elt_DD_tau_6406_N_34_29'
p282
sg9
F8.0
sg10
g164
sg11
Nsg12
Nsa(dp283
g6
I00
sg7
S'Tomo4_Ren_b_0_X_Rep_DD_El_tau_N_ 6406_3429'
p284
sg9
I1
sg10
g176
sg11
Nsg12
Nsa(dp285
g6
I00
sg7
S'Tomo4_Ren_b_0_Rep_elt_DD_tau_6406_N_34_30'
p286
sg9
F8.0
sg10
g164
sg11
Nsg12
Nsa(dp287
g6
I00
sg7
S'Tomo4_Ren_b_0_Y_Rep_DD_El_tau_N_ 6406_3430'
p288
sg9
I1
sg10
g171
sg11
Nsg12
Nsa(dp289
g6
I00
sg7
S'Tomo4_Ren_b_0_Rep_elt_DD_tau_6406_N_34_31'
p290
sg9
F8.0
sg10
g164
sg11
Nsg12
Nsa(dp291
g6
I00
sg7
S'Tomo4_Ren_b_0_X_Rep_DD_El_tau_N_ 6406_3431'
p292
sg9
I1
sg10
g176
sg11
Nsg12
Nsa(dp293
g6
I00
sg7
S'Tomo4_Ren_b_0_Rep_elt_DD_tau_6406_N_34_32'
p294
sg9
F8.0
sg10
g164
sg11
Nsg12
Nsa(dp295
g6
I00
sg7
S'Tomo4_Ren_b_0_X_Rep_DD_El_tau_N_ 6406_3432'
p296
sg9
I1
sg10
g176
sg11
Nsg12
Nsa(dp297
g6
I00
sg7
S'Tomo4_Ren_b_0_Rep_elt_DD_tau_6406_N_34_33'
p298
sg9
F8.0
sg10
g164
sg11
Nsg12
Nsa(dp299
g6
I00
sg7
S'Tomo4_Ren_b_0_mX_Final_DD_El_tau_N_6406_34'
p300
sg9
I1
sg10
g300
sg11
Nsg12
Nsa(dp301
g6
I00
sg7
S'Tomo4_Ren_b_0_Rep_elt_DD_tau_6406_N_3434'
p302
sg9
F4.0
sg10
g164
sg11
Nsg12
Nsa(dp303
g6
I00
sg7
S'Tomo_pi2_final_phase=90_0_tau_0_N_0'
p304
sg9
I1
sg10
g304
sg11
Nsg12
Nsa(dp305
g6
I00
sg7
S'Tomo_Trigger_0'
p306
sg9
I1
sg10
g306
sg11
Nsg12
Nsasg7
S'Initialized Nuclear Ramsey Sequence'
p307
sS'djump_table'
p308
Nsba((imeasurement.lib.pulsar.element
Element
p309
(dp310
S'global_time'
p311
I00
sg7
g8
sS'_channels'
p312
(dp313
S'MW_pulsemod'
p314
(dp315
S'delay'
p316
F2.56e-07
sS'high'
p317
F2.0
sS'type'
p318
S'marker'
p319
sS'low'
p320
I0
sS'offset'
p321
F0.0
ssS'MW_Imod'
p322
(dp323
g316
F2e-07
sg317
F1.0
sg318
S'analog'
p324
sg320
F-1.0
sg321
F0.0
ssS'adwin_count'
p325
(dp326
g316
F0.0
sg317
F2.0
sg318
g319
sg320
I0
sg321
F0.0
ssS'EOM_AOM_Matisse'
p327
(dp328
g316
F4.949999999999999e-07
sg317
F1.0
sg318
g324
sg320
F-1.0
sg321
F0.01
ssS'sync'
p329
(dp330
g316
F1.02e-07
sg317
F2.0
sg318
g319
sg320
I0
sg321
F0.0
ssS'MW_Qmod'
p331
(dp332
g316
F2e-07
sg317
F1.0
sg318
g324
sg320
F-1.0
sg321
F0.0
ssS'plu_sync'
p333
(dp334
g316
F1.82e-07
sg317
F2.0
sg318
g319
sg320
I0
sg321
I0
ssS'AOM_Newfocus'
p335
(dp336
g316
F2e-07
sg317
F0.5
sg318
g319
sg320
F0.0
sg321
F0.0
ssS'EOM_Matisse'
p337
(dp338
g316
F2.79e-07
sg317
F2.0
sg318
g324
sg320
F-2.0
sg321
F0.0
ssS'adwin_sync'
p339
(dp340
g316
F0.0
sg317
F2.0
sg318
g319
sg320
F0.0
sg321
F0.0
ssS'AOM_Matisse'
p341
(dp342
g316
F2e-07
sg317
F0.5
sg318
g319
sg320
F0.0
sg321
F0.0
sssS'clock'
p343
F1000000000.0
sS'_last_added_pulse'
p344
S'square pulse-1'
p345
sS'pulses'
p346
(dp347
S'MBI MW pulse-0'
p348
(imeasurement.lib.pulsar.pulselib
MW_IQmod_pulse
p349
(dp350
S'_clock'
p351
NsS'stop_offset'
p352
F5e-07
sS'_t0'
p353
F-4e-07
sS'phaselock'
p354
I01
sS'risetime'
p355
F5e-07
sS'start_offset'
p356
F5e-07
sS'channels'
p357
(lp358
g322
ag331
ag314
asS'frequency'
p359
I0
sS'Q_channel'
p360
g331
sS'PM_risetime'
p361
F1e-08
sS'phase'
p362
F0.0
sg7
S'MBI MW pulse'
p363
sS'I_channel'
p364
g322
sS'Sw_risetime'
p365
F5e-07
sS'length'
p366
F3e-06
sS'amplitude'
p367
F0.0
sS'PM_channel'
p368
g314
sbsg345
(imeasurement.lib.pulsar.pulse
SquarePulse
p369
(dp370
g351
Nsg7
S'square pulse'
p371
sg353
F2.1000000000000002e-06
sg356
I0
sg357
(lp372
g339
asg366
F2.7000000000000002e-05
sg367
I2
sS'channel'
p373
g339
sg352
I0
sbsS'square pulse-0'
p374
(imeasurement.lib.pulsar.pulse
SquarePulse
p375
(dp376
g351
Nsg7
g371
sg353
I0
sg356
I0
sg357
(lp377
g314
asg366
F1e-07
sg367
I0
sg373
g314
sg352
I0
sbssS'granularity'
p378
I4
sS'ignore_delays'
p379
I00
sS'pulsar'
p380
(imeasurement.lib.pulsar.pulsar
Pulsar
p381
(dp382
g357
(dp383
g314
(dp384
g316
F2.56e-07
sg317
F2.0
sg320
I0
sg321
F0.0
sS'active'
p385
I01
sS'skew'
p386
I0
sg318
g319
sS'id'
p387
S'ch1_marker1'
p388
ssg322
(dp389
g316
F2e-07
sg317
F1.0
sg320
F-1.0
sg321
F0.0
sg385
I01
sg386
I0
sg318
g324
sg387
S'ch1'
p390
ssg325
(dp391
g316
F0.0
sg317
F2.0
sg320
I0
sg321
F0.0
sg385
I01
sg386
I0
sg318
g319
sg387
S'ch3_marker2'
p392
ssg327
(dp393
g316
F4.949999999999999e-07
sg317
F1.0
sg320
F-1.0
sg321
F0.01
sg385
I01
sg386
I0
sg318
g324
sg387
S'ch3'
p394
ssg329
(dp395
g316
F1.02e-07
sg317
F2.0
sg320
I0
sg321
F0.0
sg385
I01
sg386
I0
sg318
g319
sg387
S'ch1_marker2'
p396
ssg331
(dp397
g316
F2e-07
sg317
F1.0
sg320
F-1.0
sg321
F0.0
sg385
I01
sg386
I0
sg318
g324
sg387
S'ch2'
p398
ssg333
(dp399
g316
F1.82e-07
sg317
F2.0
sg320
I0
sg321
I0
sg385
I01
sg386
I0
sg318
g319
sg387
S'ch2_marker1'
p400
ssg335
(dp401
g316
F2e-07
sg317
F0.5
sg320
F0.0
sg321
F0.0
sg385
I01
sg386
I0
sg318
g319
sg387
S'ch4_marker1'
p402
ssg337
(dp403
g316
F2.79e-07
sg317
F2.0
sg320
F-2.0
sg321
F0.0
sg385
I01
sg386
I0
sg318
g324
sg387
S'ch4'
p404
ssg339
(dp405
g316
F0.0
sg317
F2.0
sg320
F0.0
sg321
F0.0
sg385
I01
sg386
I0
sg318
g319
sg387
S'ch3_marker1'
p406
ssg341
(dp407
g316
F2e-07
sg317
F0.5
sg320
F0.0
sg321
F0.0
sg385
I01
sg386
I0
sg318
g319
sg387
S'ch4_marker2'
p408
sssS'AWG_sequence_cfg'
p409
(dp410
S'TRIGGER_INPUT_SLOPE'
p411
I1
sS'EVENT_INPUT_POLARITY'
p412
I1
sS'EVENT_INPUT_IMPEDANCE'
p413
I1
sS'JUMP_TIMING'
p414
I1
sS'TRIGGER_INPUT_THRESHOLD'
p415
F1.0
sS'TRIGGER_INPUT_IMPEDANCE'
p416
I1
sS'RUN_MODE'
p417
I4
sS'TRIGGER_INPUT_POLARITY'
p418
I1
sS'EVENT_INPUT_THRESHOLD'
p419
F0.8
sS'TRIGGER_SOURCE'
p420
I1
sS'RUN_STATE'
p421
I0
sS'SAMPLING_RATE'
p422
F1000000000.0
ssS'AWG_type'
p423
S'opt09'
p424
sg343
F1000000000.0
sbsS'min_samples'
p425
I960
sS'time_offset'
p426
I0
sb(imeasurement.lib.pulsar.element
Element
p427
(dp428
g311
I01
sg7
g13
sg312
(dp429
g314
(dp430
g316
F2.56e-07
sg317
F2.0
sg318
g319
sg320
I0
sg321
F0.0
ssg322
(dp431
g316
F2e-07
sg317
F1.0
sg318
g324
sg320
F-1.0
sg321
F0.0
ssg325
(dp432
g316
F0.0
sg317
F2.0
sg318
g319
sg320
I0
sg321
F0.0
ssg327
(dp433
g316
F4.949999999999999e-07
sg317
F1.0
sg318
g324
sg320
F-1.0
sg321
F0.01
ssg329
(dp434
g316
F1.02e-07
sg317
F2.0
sg318
g319
sg320
I0
sg321
F0.0
ssg331
(dp435
g316
F2e-07
sg317
F1.0
sg318
g324
sg320
F-1.0
sg321
F0.0
ssg333
(dp436
g316
F1.82e-07
sg317
F2.0
sg318
g319
sg320
I0
sg321
I0
ssg335
(dp437
g316
F2e-07
sg317
F0.5
sg318
g319
sg320
F0.0
sg321
F0.0
ssg337
(dp438
g316
F2.79e-07
sg317
F2.0
sg318
g324
sg320
F-2.0
sg321
F0.0
ssg339
(dp439
g316
F0.0
sg317
F2.0
sg318
g319
sg320
F0.0
sg321
F0.0
ssg341
(dp440
g316
F2e-07
sg317
F0.5
sg318
g319
sg320
F0.0
sg321
F0.0
sssg343
F1000000000.0
sg344
S'wait fin T-0'
p441
sg346
(dp442
S'wait in T-0'
p443
(imeasurement.lib.pulsar.pulse
SquarePulse
p444
(dp445
g351
Nsg7
S'wait in T'
p446
sg353
I0
sg356
I0
sg357
(lp447
g322
asg366
F9.75e-07
sg367
F0.0
sg373
g322
sg352
I0
sbsS'Hermite Pi/2-pulse-0'
p448
(imeasurement.lib.pulsar.pulselib
HermitePulse_Envelope_IQ
p449
(dp450
g351
Nsg352
F5e-07
sg353
F4.75e-07
sg354
I01
sg355
F5e-07
sg356
F5e-07
sg357
(lp451
g322
ag331
ag314
asg359
I0
sg360
g331
sg361
F1e-08
sg362
I0
sg365
F5e-07
sg7
S'Hermite Pi/2-pulse'
p452
sS'pi2_pulse'
p453
I01
sS'T_herm'
p454
F8.33499999999999e-09
sg364
g322
sg366
F1.05e-06
sS'mu'
p455
F5.25e-07
sS'env_amplitude'
p456
F0.56
sg367
F1.0
sg368
g314
sbsg441
(imeasurement.lib.pulsar.pulse
SquarePulse
p457
(dp458
g351
Nsg7
S'wait fin T'
p459
sg353
F1.025e-06
sg356
I0
sg357
(lp460
g322
asg366
F9.75e-07
sg367
F0.0
sg373
g322
sg352
I0
sbssg378
I4
sg379
I00
sg380
g381
sg425
I960
sg426
I0
sb(imeasurement.lib.pulsar.element
Element
p461
(dp462
g311
I01
sg7
g16
sg312
(dp463
g314
(dp464
g316
F2.56e-07
sg317
F2.0
sg318
g319
sg320
I0
sg321
F0.0
ssg322
(dp465
g316
F2e-07
sg317
F1.0
sg318
g324
sg320
F-1.0
sg321
F0.0
ssg325
(dp466
g316
F0.0
sg317
F2.0
sg318
g319
sg320
I0
sg321
F0.0
ssg327
(dp467
g316
F4.949999999999999e-07
sg317
F1.0
sg318
g324
sg320
F-1.0
sg321
F0.01
ssg329
(dp468
g316
F1.02e-07
sg317
F2.0
sg318
g319
sg320
I0
sg321
F0.0
ssg331
(dp469
g316
F2e-07
sg317
F1.0
sg318
g324
sg320
F-1.0
sg321
F0.0
ssg333
(dp470
g316
F1.82e-07
sg317
F2.0
sg318
g319
sg320
I0
sg321
I0
ssg335
(dp471
g316
F2e-07
sg317
F0.5
sg318
g319
sg320
F0.0
sg321
F0.0
ssg337
(dp472
g316
F2.79e-07
sg317
F2.0
sg318
g324
sg320
F-2.0
sg321
F0.0
ssg339
(dp473
g316
F0.0
sg317
F2.0
sg318
g319
sg320
F0.0
sg321
F0.0
ssg341
(dp474
g316
F2e-07
sg317
F0.5
sg318
g319
sg320
F0.0
sg321
F0.0
sssg343
F1000000000.0
sg344
S'Wait: tau-0'
p475
sg346
(dp476
S'delay-0'
p477
(imeasurement.lib.pulsar.pulse
SquarePulse
p478
(dp479
g351
Nsg7
g316
sg353
I0
sg356
I0
sg357
(lp480
g322
asg366
F1.3569999999999999e-06
sg367
F0.0
sg373
g322
sg352
I0
sbsS'Hermite pi-pulse-0'
p481
(imeasurement.lib.pulsar.pulselib
HermitePulse_Envelope_IQ
p482
(dp483
g351
Nsg352
F5e-07
sg353
F8.569999999999999e-07
sg354
I01
sg355
F5e-07
sg356
F5e-07
sg357
(lp484
g322
ag331
ag314
asg359
I0
sg360
g331
sg361
F1e-08
sg362
I90
sg365
F5e-07
sg7
S'Hermite pi-pulse'
p485
sg453
I00
sg454
F1.633659999999999e-08
sg364
g322
sg366
F1.098e-06
sg455
F5.49e-07
sg456
F0.812
sg367
F1.0
sg368
g314
sbsg475
(imeasurement.lib.pulsar.pulse
SquarePulse
p486
(dp487
g351
Nsg7
S'Wait: tau'
p488
sg353
F1.455e-06
sg356
I0
sg357
(lp489
g322
asg366
F2.357e-06
sg367
F0.0
sg373
g322
sg352
I0
sbssg378
I4
sg379
I00
sg380
g381
sg425
I960
sg426
I0
sb(imeasurement.lib.pulsar.element
Element
p490
(dp491
g311
I01
sg7
g29
sg312
(dp492
g314
(dp493
g316
F2.56e-07
sg317
F2.0
sg318
g319
sg320
I0
sg321
F0.0
ssg322
(dp494
g316
F2e-07
sg317
F1.0
sg318
g324
sg320
F-1.0
sg321
F0.0
ssg325
(dp495
g316
F0.0
sg317
F2.0
sg318
g319
sg320
I0
sg321
F0.0
ssg327
(dp496
g316
F4.949999999999999e-07
sg317
F1.0
sg318
g324
sg320
F-1.0
sg321
F0.01
ssg329
(dp497
g316
F1.02e-07
sg317
F2.0
sg318
g319
sg320
I0
sg321
F0.0
ssg331
(dp498
g316
F2e-07
sg317
F1.0
sg318
g324
sg320
F-1.0
sg321
F0.0
ssg333
(dp499
g316
F1.82e-07
sg317
F2.0
sg318
g319
sg320
I0
sg321
I0
ssg335
(dp500
g316
F2e-07
sg317
F0.5
sg318
g319
sg320
F0.0
sg321
F0.0
ssg337
(dp501
g316
F2.79e-07
sg317
F2.0
sg318
g324
sg320
F-2.0
sg321
F0.0
ssg339
(dp502
g316
F0.0
sg317
F2.0
sg318
g319
sg320
F0.0
sg321
F0.0
ssg341
(dp503
g316
F2e-07
sg317
F0.5
sg318
g319
sg320
F0.0
sg321
F0.0
sssg343
F1000000000.0
sg344
S'Wait: tau-1'
p504
sg346
(dp505
g504
(imeasurement.lib.pulsar.pulse
SquarePulse
p506
(dp507
g351
Nsg7
g488
sg353
F2.4550000000000002e-06
sg356
I0
sg357
(lp508
g322
asg366
F2.357e-06
sg367
F0.0
sg373
g322
sg352
I0
sbsS'Wait: tau-0'
p509
(imeasurement.lib.pulsar.pulse
SquarePulse
p510
(dp511
g351
Nsg7
g488
sg353
I0
sg356
I0
sg357
(lp512
g322
asg366
F2.357e-06
sg367
F0.0
sg373
g322
sg352
I0
sbsS'Hermite pi-pulse-0'
p513
(imeasurement.lib.pulsar.pulselib
HermitePulse_Envelope_IQ
p514
(dp515
g351
Nsg352
F5e-07
sg353
F1.8570000000000002e-06
sg354
I01
sg355
F5e-07
sg356
F5e-07
sg357
(lp516
g322
ag331
ag314
asg359
I0
sg360
g331
sg361
F1e-08
sg362
I90
sg365
F5e-07
sg7
g485
sg453
I00
sg454
F1.633659999999999e-08
sg364
g322
sg366
F1.098e-06
sg455
F5.49e-07
sg456
F0.812
sg367
F1.0
sg368
g314
sbssg378
I4
sg379
I00
sg380
g381
sg425
I960
sg426
I0
sb(imeasurement.lib.pulsar.element
Element
p517
(dp518
g311
I01
sg7
g24
sg312
(dp519
g314
(dp520
g316
F2.56e-07
sg317
F2.0
sg318
g319
sg320
I0
sg321
F0.0
ssg322
(dp521
g316
F2e-07
sg317
F1.0
sg318
g324
sg320
F-1.0
sg321
F0.0
ssg325
(dp522
g316
F0.0
sg317
F2.0
sg318
g319
sg320
I0
sg321
F0.0
ssg327
(dp523
g316
F4.949999999999999e-07
sg317
F1.0
sg318
g324
sg320
F-1.0
sg321
F0.01
ssg329
(dp524
g316
F1.02e-07
sg317
F2.0
sg318
g319
sg320
I0
sg321
F0.0
ssg331
(dp525
g316
F2e-07
sg317
F1.0
sg318
g324
sg320
F-1.0
sg321
F0.0
ssg333
(dp526
g316
F1.82e-07
sg317
F2.0
sg318
g319
sg320
I0
sg321
I0
ssg335
(dp527
g316
F2e-07
sg317
F0.5
sg318
g319
sg320
F0.0
sg321
F0.0
ssg337
(dp528
g316
F2.79e-07
sg317
F2.0
sg318
g324
sg320
F-2.0
sg321
F0.0
ssg339
(dp529
g316
F0.0
sg317
F2.0
sg318
g319
sg320
F0.0
sg321
F0.0
ssg341
(dp530
g316
F2e-07
sg317
F0.5
sg318
g319
sg320
F0.0
sg321
F0.0
sssg343
F1000000000.0
sg344
S'Wait: tau-1'
p531
sg346
(dp532
g531
(imeasurement.lib.pulsar.pulse
SquarePulse
p533
(dp534
g351
Nsg7
g488
sg353
F2.4550000000000002e-06
sg356
I0
sg357
(lp535
g322
asg366
F2.357e-06
sg367
F0.0
sg373
g322
sg352
I0
sbsS'Wait: tau-0'
p536
(imeasurement.lib.pulsar.pulse
SquarePulse
p537
(dp538
g351
Nsg7
g488
sg353
I0
sg356
I0
sg357
(lp539
g322
asg366
F2.357e-06
sg367
F0.0
sg373
g322
sg352
I0
sbsS'Hermite pi-pulse-0'
p540
(imeasurement.lib.pulsar.pulselib
HermitePulse_Envelope_IQ
p541
(dp542
g351
Nsg352
F5e-07
sg353
F1.8570000000000002e-06
sg354
I01
sg355
F5e-07
sg356
F5e-07
sg357
(lp543
g322
ag331
ag314
asg359
I0
sg360
g331
sg361
F1e-08
sg362
I0
sg365
F5e-07
sg7
g485
sg453
I00
sg454
F1.633659999999999e-08
sg364
g322
sg366
F1.098e-06
sg455
F5.49e-07
sg456
F0.812
sg367
F1.0
sg368
g314
sbssg378
I4
sg379
I00
sg380
g381
sg425
I960
sg426
I0
sb(imeasurement.lib.pulsar.element
Element
p544
(dp545
g311
I01
sg7
g153
sg312
(dp546
g314
(dp547
g316
F2.56e-07
sg317
F2.0
sg318
g319
sg320
I0
sg321
F0.0
ssg322
(dp548
g316
F2e-07
sg317
F1.0
sg318
g324
sg320
F-1.0
sg321
F0.0
ssg325
(dp549
g316
F0.0
sg317
F2.0
sg318
g319
sg320
I0
sg321
F0.0
ssg327
(dp550
g316
F4.949999999999999e-07
sg317
F1.0
sg318
g324
sg320
F-1.0
sg321
F0.01
ssg329
(dp551
g316
F1.02e-07
sg317
F2.0
sg318
g319
sg320
I0
sg321
F0.0
ssg331
(dp552
g316
F2e-07
sg317
F1.0
sg318
g324
sg320
F-1.0
sg321
F0.0
ssg333
(dp553
g316
F1.82e-07
sg317
F2.0
sg318
g319
sg320
I0
sg321
I0
ssg335
(dp554
g316
F2e-07
sg317
F0.5
sg318
g319
sg320
F0.0
sg321
F0.0
ssg337
(dp555
g316
F2.79e-07
sg317
F2.0
sg318
g324
sg320
F-2.0
sg321
F0.0
ssg339
(dp556
g316
F0.0
sg317
F2.0
sg318
g319
sg320
F0.0
sg321
F0.0
ssg341
(dp557
g316
F2e-07
sg317
F0.5
sg318
g319
sg320
F0.0
sg321
F0.0
sssg343
F1000000000.0
sg344
S'delay-0'
p558
sg346
(dp559
S'Wait: tau-0'
p560
(imeasurement.lib.pulsar.pulse
SquarePulse
p561
(dp562
g351
Nsg7
g488
sg353
I0
sg356
I0
sg357
(lp563
g322
asg366
F2.357e-06
sg367
F0.0
sg373
g322
sg352
I0
sbsS'Hermite pi-pulse-0'
p564
(imeasurement.lib.pulsar.pulselib
HermitePulse_Envelope_IQ
p565
(dp566
g351
Nsg352
F5e-07
sg353
F1.8570000000000002e-06
sg354
I01
sg355
F5e-07
sg356
F5e-07
sg357
(lp567
g322
ag331
ag314
asg359
I0
sg360
g331
sg361
F1e-08
sg362
I270
sg365
F5e-07
sg7
g485
sg453
I00
sg454
F1.633659999999999e-08
sg364
g322
sg366
F1.098e-06
sg455
F5.49e-07
sg456
F0.812
sg367
F1.0
sg368
g314
sbsg558
(imeasurement.lib.pulsar.pulse
SquarePulse
p568
(dp569
g351
Nsg7
g316
sg353
F2.4550000000000002e-06
sg356
I0
sg357
(lp570
g322
asg366
F1.3569999999999999e-06
sg367
F0.0
sg373
g322
sg352
I0
sbssg378
I4
sg379
I00
sg380
g381
sg425
I960
sg426
I0
sb(imeasurement.lib.pulsar.element
Element
p571
(dp572
g311
I01
sg7
g17
sg312
(dp573
g314
(dp574
g316
F2.56e-07
sg317
F2.0
sg318
g319
sg320
I0
sg321
F0.0
ssg322
(dp575
g316
F2e-07
sg317
F1.0
sg318
g324
sg320
F-1.0
sg321
F0.0
ssg325
(dp576
g316
F0.0
sg317
F2.0
sg318
g319
sg320
I0
sg321
F0.0
ssg327
(dp577
g316
F4.949999999999999e-07
sg317
F1.0
sg318
g324
sg320
F-1.0
sg321
F0.01
ssg329
(dp578
g316
F1.02e-07
sg317
F2.0
sg318
g319
sg320
I0
sg321
F0.0
ssg331
(dp579
g316
F2e-07
sg317
F1.0
sg318
g324
sg320
F-1.0
sg321
F0.0
ssg333
(dp580
g316
F1.82e-07
sg317
F2.0
sg318
g319
sg320
I0
sg321
I0
ssg335
(dp581
g316
F2e-07
sg317
F0.5
sg318
g319
sg320
F0.0
sg321
F0.0
ssg337
(dp582
g316
F2.79e-07
sg317
F2.0
sg318
g324
sg320
F-2.0
sg321
F0.0
ssg339
(dp583
g316
F0.0
sg317
F2.0
sg318
g319
sg320
F0.0
sg321
F0.0
ssg341
(dp584
g316
F2e-07
sg317
F0.5
sg318
g319
sg320
F0.0
sg321
F0.0
sssg343
F1000000000.0
sg344
S'Wait: tau-0'
p585
sg346
(dp586
g585
(imeasurement.lib.pulsar.pulse
SquarePulse
p587
(dp588
g351
Nsg7
g488
sg353
I0
sg356
I0
sg357
(lp589
g322
asg366
F1e-06
sg367
F0.0
sg373
g322
sg352
I0
sbssg378
I4
sg379
I00
sg380
g381
sg425
I960
sg426
I0
sb(imeasurement.lib.pulsar.element
Element
p590
(dp591
g311
I01
sg7
g157
sg312
(dp592
g314
(dp593
g316
F2.56e-07
sg317
F2.0
sg318
g319
sg320
I0
sg321
F0.0
ssg322
(dp594
g316
F2e-07
sg317
F1.0
sg318
g324
sg320
F-1.0
sg321
F0.0
ssg325
(dp595
g316
F0.0
sg317
F2.0
sg318
g319
sg320
I0
sg321
F0.0
ssg327
(dp596
g316
F4.949999999999999e-07
sg317
F1.0
sg318
g324
sg320
F-1.0
sg321
F0.01
ssg329
(dp597
g316
F1.02e-07
sg317
F2.0
sg318
g319
sg320
I0
sg321
F0.0
ssg331
(dp598
g316
F2e-07
sg317
F1.0
sg318
g324
sg320
F-1.0
sg321
F0.0
ssg333
(dp599
g316
F1.82e-07
sg317
F2.0
sg318
g319
sg320
I0
sg321
I0
ssg335
(dp600
g316
F2e-07
sg317
F0.5
sg318
g319
sg320
F0.0
sg321
F0.0
ssg337
(dp601
g316
F2.79e-07
sg317
F2.0
sg318
g324
sg320
F-2.0
sg321
F0.0
ssg339
(dp602
g316
F0.0
sg317
F2.0
sg318
g319
sg320
F0.0
sg321
F0.0
ssg341
(dp603
g316
F2e-07
sg317
F0.5
sg318
g319
sg320
F0.0
sg321
F0.0
sssg343
F1000000000.0
sg344
S'wait fin T-0'
p604
sg346
(dp605
S'wait in T-0'
p606
(imeasurement.lib.pulsar.pulse
SquarePulse
p607
(dp608
g351
Nsg7
g446
sg353
I0
sg356
I0
sg357
(lp609
g322
asg366
F9.75e-07
sg367
F0.0
sg373
g322
sg352
I0
sbsS'Hermite Pi/2-pulse-0'
p610
(imeasurement.lib.pulsar.pulselib
HermitePulse_Envelope_IQ
p611
(dp612
g351
Nsg352
F5e-07
sg353
F4.75e-07
sg354
I01
sg355
F5e-07
sg356
F5e-07
sg357
(lp613
g322
ag331
ag314
asg359
I0
sg360
g331
sg361
F1e-08
sg362
I90
sg365
F5e-07
sg7
g452
sg453
I01
sg454
F8.33499999999999e-09
sg364
g322
sg366
F1.05e-06
sg455
F5.25e-07
sg456
F0.56
sg367
F1.0
sg368
g314
sbsg604
(imeasurement.lib.pulsar.pulse
SquarePulse
p614
(dp615
g351
Nsg7
g459
sg353
F1.025e-06
sg356
I0
sg357
(lp616
g322
asg366
F9.75e-07
sg367
F0.0
sg373
g322
sg352
I0
sbssg378
I4
sg379
I00
sg380
g381
sg425
I960
sg426
I0
sb(imeasurement.lib.pulsar.element
Element
p617
(dp618
g311
I01
sg7
g159
sg312
(dp619
g314
(dp620
g316
F2.56e-07
sg317
F2.0
sg318
g319
sg320
I0
sg321
F0.0
ssg322
(dp621
g316
F2e-07
sg317
F1.0
sg318
g324
sg320
F-1.0
sg321
F0.0
ssg325
(dp622
g316
F0.0
sg317
F2.0
sg318
g319
sg320
I0
sg321
F0.0
ssg327
(dp623
g316
F4.949999999999999e-07
sg317
F1.0
sg318
g324
sg320
F-1.0
sg321
F0.01
ssg329
(dp624
g316
F1.02e-07
sg317
F2.0
sg318
g319
sg320
I0
sg321
F0.0
ssg331
(dp625
g316
F2e-07
sg317
F1.0
sg318
g324
sg320
F-1.0
sg321
F0.0
ssg333
(dp626
g316
F1.82e-07
sg317
F2.0
sg318
g319
sg320
I0
sg321
I0
ssg335
(dp627
g316
F2e-07
sg317
F0.5
sg318
g319
sg320
F0.0
sg321
F0.0
ssg337
(dp628
g316
F2.79e-07
sg317
F2.0
sg318
g324
sg320
F-2.0
sg321
F0.0
ssg339
(dp629
g316
F0.0
sg317
F2.0
sg318
g319
sg320
F0.0
sg321
F0.0
ssg341
(dp630
g316
F2e-07
sg317
F0.5
sg318
g319
sg320
F0.0
sg321
F0.0
sssg343
F1000000000.0
sg344
S'square pulse-0'
p631
sg346
(dp632
g631
(imeasurement.lib.pulsar.pulse
SquarePulse
p633
(dp634
g351
Nsg7
g371
sg353
I0
sg356
I0
sg357
(lp635
g339
asg366
F7.999999999999999e-05
sg367
I2
sg373
g339
sg352
I0
sbssg378
I4
sg379
I00
sg380
g381
sg425
I960
sg426
I0
sb(imeasurement.lib.pulsar.element
Element
p636
(dp637
g311
I01
sg7
g160
sg312
(dp638
g314
(dp639
g316
F2.56e-07
sg317
F2.0
sg318
g319
sg320
I0
sg321
F0.0
ssg322
(dp640
g316
F2e-07
sg317
F1.0
sg318
g324
sg320
F-1.0
sg321
F0.0
ssg325
(dp641
g316
F0.0
sg317
F2.0
sg318
g319
sg320
I0
sg321
F0.0
ssg327
(dp642
g316
F4.949999999999999e-07
sg317
F1.0
sg318
g324
sg320
F-1.0
sg321
F0.01
ssg329
(dp643
g316
F1.02e-07
sg317
F2.0
sg318
g319
sg320
I0
sg321
F0.0
ssg331
(dp644
g316
F2e-07
sg317
F1.0
sg318
g324
sg320
F-1.0
sg321
F0.0
ssg333
(dp645
g316
F1.82e-07
sg317
F2.0
sg318
g319
sg320
I0
sg321
I0
ssg335
(dp646
g316
F2e-07
sg317
F0.5
sg318
g319
sg320
F0.0
sg321
F0.0
ssg337
(dp647
g316
F2.79e-07
sg317
F2.0
sg318
g324
sg320
F-2.0
sg321
F0.0
ssg339
(dp648
g316
F0.0
sg317
F2.0
sg318
g319
sg320
F0.0
sg321
F0.0
ssg341
(dp649
g316
F2e-07
sg317
F0.5
sg318
g319
sg320
F0.0
sg321
F0.0
sssg343
F1000000000.0
sg344
S'wait fin T-0'
p650
sg346
(dp651
S'wait in T-0'
p652
(imeasurement.lib.pulsar.pulse
SquarePulse
p653
(dp654
g351
Nsg7
g446
sg353
I0
sg356
I0
sg357
(lp655
g322
asg366
F2.4640000000000005e-06
sg367
F0.0
sg373
g322
sg352
I0
sbsS'Hermite Pi/2-pulse-0'
p656
(imeasurement.lib.pulsar.pulselib
HermitePulse_Envelope_IQ
p657
(dp658
g351
Nsg352
F5e-07
sg353
F1.9640000000000006e-06
sg354
I01
sg355
F5e-07
sg356
F5e-07
sg357
(lp659
g322
ag331
ag314
asg359
I0
sg360
g331
sg361
F1e-08
sg362
I0
sg365
F5e-07
sg7
g452
sg453
I01
sg454
F8.33499999999999e-09
sg364
g322
sg366
F1.05e-06
sg455
F5.25e-07
sg456
F0.56
sg367
F1.0
sg368
g314
sbsg650
(imeasurement.lib.pulsar.pulse
SquarePulse
p660
(dp661
g351
Nsg7
g459
sg353
F2.5140000000000004e-06
sg356
I0
sg357
(lp662
g322
asg366
F9.75e-07
sg367
F0.0
sg373
g322
sg352
I0
sbssg378
I4
sg379
I00
sg380
g381
sg425
I960
sg426
I0
sb(imeasurement.lib.pulsar.element
Element
p663
(dp664
g311
I01
sg7
g163
sg312
(dp665
g314
(dp666
g316
F2.56e-07
sg317
F2.0
sg318
g319
sg320
I0
sg321
F0.0
ssg322
(dp667
g316
F2e-07
sg317
F1.0
sg318
g324
sg320
F-1.0
sg321
F0.0
ssg325
(dp668
g316
F0.0
sg317
F2.0
sg318
g319
sg320
I0
sg321
F0.0
ssg327
(dp669
g316
F4.949999999999999e-07
sg317
F1.0
sg318
g324
sg320
F-1.0
sg321
F0.01
ssg329
(dp670
g316
F1.02e-07
sg317
F2.0
sg318
g319
sg320
I0
sg321
F0.0
ssg331
(dp671
g316
F2e-07
sg317
F1.0
sg318
g324
sg320
F-1.0
sg321
F0.0
ssg333
(dp672
g316
F1.82e-07
sg317
F2.0
sg318
g319
sg320
I0
sg321
I0
ssg335
(dp673
g316
F2e-07
sg317
F0.5
sg318
g319
sg320
F0.0
sg321
F0.0
ssg337
(dp674
g316
F2.79e-07
sg317
F2.0
sg318
g324
sg320
F-2.0
sg321
F0.0
ssg339
(dp675
g316
F0.0
sg317
F2.0
sg318
g319
sg320
F0.0
sg321
F0.0
ssg341
(dp676
g316
F2e-07
sg317
F0.5
sg318
g319
sg320
F0.0
sg321
F0.0
sssg343
F1000000000.0
sg344
S'Wait: tau-0'
p677
sg346
(dp678
S'delay-0'
p679
(imeasurement.lib.pulsar.pulse
SquarePulse
p680
(dp681
g351
Nsg7
g316
sg353
I0
sg356
I0
sg357
(lp682
g322
asg366
F1.3569999999999999e-06
sg367
F0.0
sg373
g322
sg352
I0
sbsS'Hermite pi-pulse-0'
p683
(imeasurement.lib.pulsar.pulselib
HermitePulse_Envelope_IQ
p684
(dp685
g351
Nsg352
F5e-07
sg353
F8.569999999999999e-07
sg354
I01
sg355
F5e-07
sg356
F5e-07
sg357
(lp686
g322
ag331
ag314
asg359
I0
sg360
g331
sg361
F1e-08
sg362
I90
sg365
F5e-07
sg7
g485
sg453
I00
sg454
F1.633659999999999e-08
sg364
g322
sg366
F1.098e-06
sg455
F5.49e-07
sg456
F0.812
sg367
F1.0
sg368
g314
sbsg677
(imeasurement.lib.pulsar.pulse
SquarePulse
p687
(dp688
g351
Nsg7
g488
sg353
F1.455e-06
sg356
I0
sg357
(lp689
g322
asg366
F2.357e-06
sg367
F0.0
sg373
g322
sg352
I0
sbssg378
I4
sg379
I00
sg380
g381
sg425
I960
sg426
I0
sb(imeasurement.lib.pulsar.element
Element
p690
(dp691
g311
I01
sg7
g176
sg312
(dp692
g314
(dp693
g316
F2.56e-07
sg317
F2.0
sg318
g319
sg320
I0
sg321
F0.0
ssg322
(dp694
g316
F2e-07
sg317
F1.0
sg318
g324
sg320
F-1.0
sg321
F0.0
ssg325
(dp695
g316
F0.0
sg317
F2.0
sg318
g319
sg320
I0
sg321
F0.0
ssg327
(dp696
g316
F4.949999999999999e-07
sg317
F1.0
sg318
g324
sg320
F-1.0
sg321
F0.01
ssg329
(dp697
g316
F1.02e-07
sg317
F2.0
sg318
g319
sg320
I0
sg321
F0.0
ssg331
(dp698
g316
F2e-07
sg317
F1.0
sg318
g324
sg320
F-1.0
sg321
F0.0
ssg333
(dp699
g316
F1.82e-07
sg317
F2.0
sg318
g319
sg320
I0
sg321
I0
ssg335
(dp700
g316
F2e-07
sg317
F0.5
sg318
g319
sg320
F0.0
sg321
F0.0
ssg337
(dp701
g316
F2.79e-07
sg317
F2.0
sg318
g324
sg320
F-2.0
sg321
F0.0
ssg339
(dp702
g316
F0.0
sg317
F2.0
sg318
g319
sg320
F0.0
sg321
F0.0
ssg341
(dp703
g316
F2e-07
sg317
F0.5
sg318
g319
sg320
F0.0
sg321
F0.0
sssg343
F1000000000.0
sg344
S'Wait: tau-1'
p704
sg346
(dp705
g704
(imeasurement.lib.pulsar.pulse
SquarePulse
p706
(dp707
g351
Nsg7
g488
sg353
F2.4550000000000002e-06
sg356
I0
sg357
(lp708
g322
asg366
F2.357e-06
sg367
F0.0
sg373
g322
sg352
I0
sbsS'Wait: tau-0'
p709
(imeasurement.lib.pulsar.pulse
SquarePulse
p710
(dp711
g351
Nsg7
g488
sg353
I0
sg356
I0
sg357
(lp712
g322
asg366
F2.357e-06
sg367
F0.0
sg373
g322
sg352
I0
sbsS'Hermite pi-pulse-0'
p713
(imeasurement.lib.pulsar.pulselib
HermitePulse_Envelope_IQ
p714
(dp715
g351
Nsg352
F5e-07
sg353
F1.8570000000000002e-06
sg354
I01
sg355
F5e-07
sg356
F5e-07
sg357
(lp716
g322
ag331
ag314
asg359
I0
sg360
g331
sg361
F1e-08
sg362
I90
sg365
F5e-07
sg7
g485
sg453
I00
sg454
F1.633659999999999e-08
sg364
g322
sg366
F1.098e-06
sg455
F5.49e-07
sg456
F0.812
sg367
F1.0
sg368
g314
sbssg378
I4
sg379
I00
sg380
g381
sg425
I960
sg426
I0
sb(imeasurement.lib.pulsar.element
Element
p717
(dp718
g311
I01
sg7
g171
sg312
(dp719
g314
(dp720
g316
F2.56e-07
sg317
F2.0
sg318
g319
sg320
I0
sg321
F0.0
ssg322
(dp721
g316
F2e-07
sg317
F1.0
sg318
g324
sg320
F-1.0
sg321
F0.0
ssg325
(dp722
g316
F0.0
sg317
F2.0
sg318
g319
sg320
I0
sg321
F0.0
ssg327
(dp723
g316
F4.949999999999999e-07
sg317
F1.0
sg318
g324
sg320
F-1.0
sg321
F0.01
ssg329
(dp724
g316
F1.02e-07
sg317
F2.0
sg318
g319
sg320
I0
sg321
F0.0
ssg331
(dp725
g316
F2e-07
sg317
F1.0
sg318
g324
sg320
F-1.0
sg321
F0.0
ssg333
(dp726
g316
F1.82e-07
sg317
F2.0
sg318
g319
sg320
I0
sg321
I0
ssg335
(dp727
g316
F2e-07
sg317
F0.5
sg318
g319
sg320
F0.0
sg321
F0.0
ssg337
(dp728
g316
F2.79e-07
sg317
F2.0
sg318
g324
sg320
F-2.0
sg321
F0.0
ssg339
(dp729
g316
F0.0
sg317
F2.0
sg318
g319
sg320
F0.0
sg321
F0.0
ssg341
(dp730
g316
F2e-07
sg317
F0.5
sg318
g319
sg320
F0.0
sg321
F0.0
sssg343
F1000000000.0
sg344
S'Wait: tau-1'
p731
sg346
(dp732
g731
(imeasurement.lib.pulsar.pulse
SquarePulse
p733
(dp734
g351
Nsg7
g488
sg353
F2.4550000000000002e-06
sg356
I0
sg357
(lp735
g322
asg366
F2.357e-06
sg367
F0.0
sg373
g322
sg352
I0
sbsS'Wait: tau-0'
p736
(imeasurement.lib.pulsar.pulse
SquarePulse
p737
(dp738
g351
Nsg7
g488
sg353
I0
sg356
I0
sg357
(lp739
g322
asg366
F2.357e-06
sg367
F0.0
sg373
g322
sg352
I0
sbsS'Hermite pi-pulse-0'
p740
(imeasurement.lib.pulsar.pulselib
HermitePulse_Envelope_IQ
p741
(dp742
g351
Nsg352
F5e-07
sg353
F1.8570000000000002e-06
sg354
I01
sg355
F5e-07
sg356
F5e-07
sg357
(lp743
g322
ag331
ag314
asg359
I0
sg360
g331
sg361
F1e-08
sg362
I0
sg365
F5e-07
sg7
g485
sg453
I00
sg454
F1.633659999999999e-08
sg364
g322
sg366
F1.098e-06
sg455
F5.49e-07
sg456
F0.812
sg367
F1.0
sg368
g314
sbssg378
I4
sg379
I00
sg380
g381
sg425
I960
sg426
I0
sb(imeasurement.lib.pulsar.element
Element
p744
(dp745
g311
I01
sg7
g300
sg312
(dp746
g314
(dp747
g316
F2.56e-07
sg317
F2.0
sg318
g319
sg320
I0
sg321
F0.0
ssg322
(dp748
g316
F2e-07
sg317
F1.0
sg318
g324
sg320
F-1.0
sg321
F0.0
ssg325
(dp749
g316
F0.0
sg317
F2.0
sg318
g319
sg320
I0
sg321
F0.0
ssg327
(dp750
g316
F4.949999999999999e-07
sg317
F1.0
sg318
g324
sg320
F-1.0
sg321
F0.01
ssg329
(dp751
g316
F1.02e-07
sg317
F2.0
sg318
g319
sg320
I0
sg321
F0.0
ssg331
(dp752
g316
F2e-07
sg317
F1.0
sg318
g324
sg320
F-1.0
sg321
F0.0
ssg333
(dp753
g316
F1.82e-07
sg317
F2.0
sg318
g319
sg320
I0
sg321
I0
ssg335
(dp754
g316
F2e-07
sg317
F0.5
sg318
g319
sg320
F0.0
sg321
F0.0
ssg337
(dp755
g316
F2.79e-07
sg317
F2.0
sg318
g324
sg320
F-2.0
sg321
F0.0
ssg339
(dp756
g316
F0.0
sg317
F2.0
sg318
g319
sg320
F0.0
sg321
F0.0
ssg341
(dp757
g316
F2e-07
sg317
F0.5
sg318
g319
sg320
F0.0
sg321
F0.0
sssg343
F1000000000.0
sg344
S'delay-0'
p758
sg346
(dp759
S'Wait: tau-0'
p760
(imeasurement.lib.pulsar.pulse
SquarePulse
p761
(dp762
g351
Nsg7
g488
sg353
I0
sg356
I0
sg357
(lp763
g322
asg366
F2.357e-06
sg367
F0.0
sg373
g322
sg352
I0
sbsS'Hermite pi-pulse-0'
p764
(imeasurement.lib.pulsar.pulselib
HermitePulse_Envelope_IQ
p765
(dp766
g351
Nsg352
F5e-07
sg353
F1.8570000000000002e-06
sg354
I01
sg355
F5e-07
sg356
F5e-07
sg357
(lp767
g322
ag331
ag314
asg359
I0
sg360
g331
sg361
F1e-08
sg362
I270
sg365
F5e-07
sg7
g485
sg453
I00
sg454
F1.633659999999999e-08
sg364
g322
sg366
F1.098e-06
sg455
F5.49e-07
sg456
F0.812
sg367
F1.0
sg368
g314
sbsg758
(imeasurement.lib.pulsar.pulse
SquarePulse
p768
(dp769
g351
Nsg7
g316
sg353
F2.4550000000000002e-06
sg356
I0
sg357
(lp770
g322
asg366
F1.3569999999999999e-06
sg367
F0.0
sg373
g322
sg352
I0
sbssg378
I4
sg379
I00
sg380
g381
sg425
I960
sg426
I0
sb(imeasurement.lib.pulsar.element
Element
p771
(dp772
g311
I01
sg7
g164
sg312
(dp773
g314
(dp774
g316
F2.56e-07
sg317
F2.0
sg318
g319
sg320
I0
sg321
F0.0
ssg322
(dp775
g316
F2e-07
sg317
F1.0
sg318
g324
sg320
F-1.0
sg321
F0.0
ssg325
(dp776
g316
F0.0
sg317
F2.0
sg318
g319
sg320
I0
sg321
F0.0
ssg327
(dp777
g316
F4.949999999999999e-07
sg317
F1.0
sg318
g324
sg320
F-1.0
sg321
F0.01
ssg329
(dp778
g316
F1.02e-07
sg317
F2.0
sg318
g319
sg320
I0
sg321
F0.0
ssg331
(dp779
g316
F2e-07
sg317
F1.0
sg318
g324
sg320
F-1.0
sg321
F0.0
ssg333
(dp780
g316
F1.82e-07
sg317
F2.0
sg318
g319
sg320
I0
sg321
I0
ssg335
(dp781
g316
F2e-07
sg317
F0.5
sg318
g319
sg320
F0.0
sg321
F0.0
ssg337
(dp782
g316
F2.79e-07
sg317
F2.0
sg318
g324
sg320
F-2.0
sg321
F0.0
ssg339
(dp783
g316
F0.0
sg317
F2.0
sg318
g319
sg320
F0.0
sg321
F0.0
ssg341
(dp784
g316
F2e-07
sg317
F0.5
sg318
g319
sg320
F0.0
sg321
F0.0
sssg343
F1000000000.0
sg344
S'Wait: tau-0'
p785
sg346
(dp786
g785
(imeasurement.lib.pulsar.pulse
SquarePulse
p787
(dp788
g351
Nsg7
g488
sg353
I0
sg356
I0
sg357
(lp789
g322
asg366
F1e-06
sg367
F0.0
sg373
g322
sg352
I0
sbssg378
I4
sg379
I00
sg380
g381
sg425
I960
sg426
I0
sb(imeasurement.lib.pulsar.element
Element
p790
(dp791
g311
I01
sg7
g304
sg312
(dp792
g314
(dp793
g316
F2.56e-07
sg317
F2.0
sg318
g319
sg320
I0
sg321
F0.0
ssg322
(dp794
g316
F2e-07
sg317
F1.0
sg318
g324
sg320
F-1.0
sg321
F0.0
ssg325
(dp795
g316
F0.0
sg317
F2.0
sg318
g319
sg320
I0
sg321
F0.0
ssg327
(dp796
g316
F4.949999999999999e-07
sg317
F1.0
sg318
g324
sg320
F-1.0
sg321
F0.01
ssg329
(dp797
g316
F1.02e-07
sg317
F2.0
sg318
g319
sg320
I0
sg321
F0.0
ssg331
(dp798
g316
F2e-07
sg317
F1.0
sg318
g324
sg320
F-1.0
sg321
F0.0
ssg333
(dp799
g316
F1.82e-07
sg317
F2.0
sg318
g319
sg320
I0
sg321
I0
ssg335
(dp800
g316
F2e-07
sg317
F0.5
sg318
g319
sg320
F0.0
sg321
F0.0
ssg337
(dp801
g316
F2.79e-07
sg317
F2.0
sg318
g324
sg320
F-2.0
sg321
F0.0
ssg339
(dp802
g316
F0.0
sg317
F2.0
sg318
g319
sg320
F0.0
sg321
F0.0
ssg341
(dp803
g316
F2e-07
sg317
F0.5
sg318
g319
sg320
F0.0
sg321
F0.0
sssg343
F1000000000.0
sg344
S'wait fin T-0'
p804
sg346
(dp805
S'wait in T-0'
p806
(imeasurement.lib.pulsar.pulse
SquarePulse
p807
(dp808
g351
Nsg7
g446
sg353
I0
sg356
I0
sg357
(lp809
g322
asg366
F9.75e-07
sg367
F0.0
sg373
g322
sg352
I0
sbsS'Hermite Pi/2-pulse-0'
p810
(imeasurement.lib.pulsar.pulselib
HermitePulse_Envelope_IQ
p811
(dp812
g351
Nsg352
F5e-07
sg353
F4.75e-07
sg354
I01
sg355
F5e-07
sg356
F5e-07
sg357
(lp813
g322
ag331
ag314
asg359
I0
sg360
g331
sg361
F1e-08
sg362
cnumpy.core.multiarray
scalar
p814
(cnumpy
dtype
p815
(S'i4'
p816
I0
I1
tp817
Rp818
(I3
S'<'
p819
NNNI-1
I-1
I0
tp820
bS'Z\x00\x00\x00'
p821
tp822
Rp823
sg365
F5e-07
sg7
g452
sg453
I01
sg454
F8.33499999999999e-09
sg364
g322
sg366
F1.05e-06
sg455
F5.25e-07
sg456
F0.56
sg367
F1.0
sg368
g314
sbsg804
(imeasurement.lib.pulsar.pulse
SquarePulse
p824
(dp825
g351
Nsg7
g459
sg353
F1.025e-06
sg356
I0
sg357
(lp826
g322
asg366
F9.75e-07
sg367
F0.0
sg373
g322
sg352
I0
sbssg378
I4
sg379
I00
sg380
g381
sg425
I960
sg426
I0
sb(imeasurement.lib.pulsar.element
Element
p827
(dp828
g311
I01
sg7
g306
sg312
(dp829
g314
(dp830
g316
F2.56e-07
sg317
F2.0
sg318
g319
sg320
I0
sg321
F0.0
ssg322
(dp831
g316
F2e-07
sg317
F1.0
sg318
g324
sg320
F-1.0
sg321
F0.0
ssg325
(dp832
g316
F0.0
sg317
F2.0
sg318
g319
sg320
I0
sg321
F0.0
ssg327
(dp833
g316
F4.949999999999999e-07
sg317
F1.0
sg318
g324
sg320
F-1.0
sg321
F0.01
ssg329
(dp834
g316
F1.02e-07
sg317
F2.0
sg318
g319
sg320
I0
sg321
F0.0
ssg331
(dp835
g316
F2e-07
sg317
F1.0
sg318
g324
sg320
F-1.0
sg321
F0.0
ssg333
(dp836
g316
F1.82e-07
sg317
F2.0
sg318
g319
sg320
I0
sg321
I0
ssg335
(dp837
g316
F2e-07
sg317
F0.5
sg318
g319
sg320
F0.0
sg321
F0.0
ssg337
(dp838
g316
F2.79e-07
sg317
F2.0
sg318
g324
sg320
F-2.0
sg321
F0.0
ssg339
(dp839
g316
F0.0
sg317
F2.0
sg318
g319
sg320
F0.0
sg321
F0.0
ssg341
(dp840
g316
F2e-07
sg317
F0.5
sg318
g319
sg320
F0.0
sg321
F0.0
sssg343
F1000000000.0
sg344
S'square pulse-0'
p841
sg346
(dp842
g841
(imeasurement.lib.pulsar.pulse
SquarePulse
p843
(dp844
g351
Nsg7
g371
sg353
I0
sg356
I0
sg357
(lp845
g339
asg366
F1e-05
sg367
I2
sg373
g339
sg352
I0
sbssg378
I4
sg379
I00
sg380
g381
sg425
I960
sg426
I0
sbtp846
a.