(lp0
(imeasurement.lib.pulsar.pulsar
Sequence
p1
(dp2
S'elements'
p3
(lp4
(dp5
S'trigger_wait'
p6
I01
sS'name'
p7
S'MBI_0'
p8
sS'repetitions'
p9
I1
sS'wfname'
p10
g8
sS'goto_target'
p11
g8
sS'jump_target'
p12
S'C_MBI1_C4_y_pt0_tau_0_N_0'
p13
sa(dp14
g6
I01
sg7
g13
sg9
I1
sg10
g13
sg11
Nsg12
Nsa(dp15
g6
I00
sg7
S'C_MBI1_C4_Ren_a_pt0_X_Initial_DD_El_tau_N_ 6406_34'
p16
sg9
F4.0
sg10
S'C_MBI1_C4_Ren_a_pt0_Rep_elt_DD_tau_6406_N_34'
p17
sg11
Nsg12
Nsa(dp18
g6
I00
sg7
S'C_MBI1_C4_Ren_a_pt0_X_Initial_DD_El_tau_N_ 6406_34_'
p19
sg9
I1
sg10
g16
sg11
Nsg12
Nsa(dp20
g6
I00
sg7
S'C_MBI1_C4_Ren_a_pt0_Rep_elt_DD_tau_6406_N_34_1'
p21
sg9
F8.0
sg10
g17
sg11
Nsg12
Nsa(dp22
g6
I00
sg7
S'C_MBI1_C4_Ren_a_pt0_Y_Rep_DD_El_tau_N_ 6406_341'
p23
sg9
I1
sg10
S'C_MBI1_C4_Ren_a_pt0_Y_Rep_DD_El_tau_N_ 6406_34'
p24
sg11
Nsg12
Nsa(dp25
g6
I00
sg7
S'C_MBI1_C4_Ren_a_pt0_Rep_elt_DD_tau_6406_N_34_2'
p26
sg9
F8.0
sg10
g17
sg11
Nsg12
Nsa(dp27
g6
I00
sg7
S'C_MBI1_C4_Ren_a_pt0_X_Rep_DD_El_tau_N_ 6406_342'
p28
sg9
I1
sg10
S'C_MBI1_C4_Ren_a_pt0_X_Rep_DD_El_tau_N_ 6406_34'
p29
sg11
Nsg12
Nsa(dp30
g6
I00
sg7
S'C_MBI1_C4_Ren_a_pt0_Rep_elt_DD_tau_6406_N_34_3'
p31
sg9
F8.0
sg10
g17
sg11
Nsg12
Nsa(dp32
g6
I00
sg7
S'C_MBI1_C4_Ren_a_pt0_Y_Rep_DD_El_tau_N_ 6406_343'
p33
sg9
I1
sg10
g24
sg11
Nsg12
Nsa(dp34
g6
I00
sg7
S'C_MBI1_C4_Ren_a_pt0_Rep_elt_DD_tau_6406_N_34_4'
p35
sg9
F8.0
sg10
g17
sg11
Nsg12
Nsa(dp36
g6
I00
sg7
S'C_MBI1_C4_Ren_a_pt0_Y_Rep_DD_El_tau_N_ 6406_344'
p37
sg9
I1
sg10
g24
sg11
Nsg12
Nsa(dp38
g6
I00
sg7
S'C_MBI1_C4_Ren_a_pt0_Rep_elt_DD_tau_6406_N_34_5'
p39
sg9
F8.0
sg10
g17
sg11
Nsg12
Nsa(dp40
g6
I00
sg7
S'C_MBI1_C4_Ren_a_pt0_X_Rep_DD_El_tau_N_ 6406_345'
p41
sg9
I1
sg10
g29
sg11
Nsg12
Nsa(dp42
g6
I00
sg7
S'C_MBI1_C4_Ren_a_pt0_Rep_elt_DD_tau_6406_N_34_6'
p43
sg9
F8.0
sg10
g17
sg11
Nsg12
Nsa(dp44
g6
I00
sg7
S'C_MBI1_C4_Ren_a_pt0_Y_Rep_DD_El_tau_N_ 6406_346'
p45
sg9
I1
sg10
g24
sg11
Nsg12
Nsa(dp46
g6
I00
sg7
S'C_MBI1_C4_Ren_a_pt0_Rep_elt_DD_tau_6406_N_34_7'
p47
sg9
F8.0
sg10
g17
sg11
Nsg12
Nsa(dp48
g6
I00
sg7
S'C_MBI1_C4_Ren_a_pt0_X_Rep_DD_El_tau_N_ 6406_347'
p49
sg9
I1
sg10
g29
sg11
Nsg12
Nsa(dp50
g6
I00
sg7
S'C_MBI1_C4_Ren_a_pt0_Rep_elt_DD_tau_6406_N_34_8'
p51
sg9
F8.0
sg10
g17
sg11
Nsg12
Nsa(dp52
g6
I00
sg7
S'C_MBI1_C4_Ren_a_pt0_X_Rep_DD_El_tau_N_ 6406_348'
p53
sg9
I1
sg10
g29
sg11
Nsg12
Nsa(dp54
g6
I00
sg7
S'C_MBI1_C4_Ren_a_pt0_Rep_elt_DD_tau_6406_N_34_9'
p55
sg9
F8.0
sg10
g17
sg11
Nsg12
Nsa(dp56
g6
I00
sg7
S'C_MBI1_C4_Ren_a_pt0_Y_Rep_DD_El_tau_N_ 6406_349'
p57
sg9
I1
sg10
g24
sg11
Nsg12
Nsa(dp58
g6
I00
sg7
S'C_MBI1_C4_Ren_a_pt0_Rep_elt_DD_tau_6406_N_34_10'
p59
sg9
F8.0
sg10
g17
sg11
Nsg12
Nsa(dp60
g6
I00
sg7
S'C_MBI1_C4_Ren_a_pt0_X_Rep_DD_El_tau_N_ 6406_3410'
p61
sg9
I1
sg10
g29
sg11
Nsg12
Nsa(dp62
g6
I00
sg7
S'C_MBI1_C4_Ren_a_pt0_Rep_elt_DD_tau_6406_N_34_11'
p63
sg9
F8.0
sg10
g17
sg11
Nsg12
Nsa(dp64
g6
I00
sg7
S'C_MBI1_C4_Ren_a_pt0_Y_Rep_DD_El_tau_N_ 6406_3411'
p65
sg9
I1
sg10
g24
sg11
Nsg12
Nsa(dp66
g6
I00
sg7
S'C_MBI1_C4_Ren_a_pt0_Rep_elt_DD_tau_6406_N_34_12'
p67
sg9
F8.0
sg10
g17
sg11
Nsg12
Nsa(dp68
g6
I00
sg7
S'C_MBI1_C4_Ren_a_pt0_Y_Rep_DD_El_tau_N_ 6406_3412'
p69
sg9
I1
sg10
g24
sg11
Nsg12
Nsa(dp70
g6
I00
sg7
S'C_MBI1_C4_Ren_a_pt0_Rep_elt_DD_tau_6406_N_34_13'
p71
sg9
F8.0
sg10
g17
sg11
Nsg12
Nsa(dp72
g6
I00
sg7
S'C_MBI1_C4_Ren_a_pt0_X_Rep_DD_El_tau_N_ 6406_3413'
p73
sg9
I1
sg10
g29
sg11
Nsg12
Nsa(dp74
g6
I00
sg7
S'C_MBI1_C4_Ren_a_pt0_Rep_elt_DD_tau_6406_N_34_14'
p75
sg9
F8.0
sg10
g17
sg11
Nsg12
Nsa(dp76
g6
I00
sg7
S'C_MBI1_C4_Ren_a_pt0_Y_Rep_DD_El_tau_N_ 6406_3414'
p77
sg9
I1
sg10
g24
sg11
Nsg12
Nsa(dp78
g6
I00
sg7
S'C_MBI1_C4_Ren_a_pt0_Rep_elt_DD_tau_6406_N_34_15'
p79
sg9
F8.0
sg10
g17
sg11
Nsg12
Nsa(dp80
g6
I00
sg7
S'C_MBI1_C4_Ren_a_pt0_X_Rep_DD_El_tau_N_ 6406_3415'
p81
sg9
I1
sg10
g29
sg11
Nsg12
Nsa(dp82
g6
I00
sg7
S'C_MBI1_C4_Ren_a_pt0_Rep_elt_DD_tau_6406_N_34_16'
p83
sg9
F8.0
sg10
g17
sg11
Nsg12
Nsa(dp84
g6
I00
sg7
S'C_MBI1_C4_Ren_a_pt0_X_Rep_DD_El_tau_N_ 6406_3416'
p85
sg9
I1
sg10
g29
sg11
Nsg12
Nsa(dp86
g6
I00
sg7
S'C_MBI1_C4_Ren_a_pt0_Rep_elt_DD_tau_6406_N_34_17'
p87
sg9
F8.0
sg10
g17
sg11
Nsg12
Nsa(dp88
g6
I00
sg7
S'C_MBI1_C4_Ren_a_pt0_Y_Rep_DD_El_tau_N_ 6406_3417'
p89
sg9
I1
sg10
g24
sg11
Nsg12
Nsa(dp90
g6
I00
sg7
S'C_MBI1_C4_Ren_a_pt0_Rep_elt_DD_tau_6406_N_34_18'
p91
sg9
F8.0
sg10
g17
sg11
Nsg12
Nsa(dp92
g6
I00
sg7
S'C_MBI1_C4_Ren_a_pt0_X_Rep_DD_El_tau_N_ 6406_3418'
p93
sg9
I1
sg10
g29
sg11
Nsg12
Nsa(dp94
g6
I00
sg7
S'C_MBI1_C4_Ren_a_pt0_Rep_elt_DD_tau_6406_N_34_19'
p95
sg9
F8.0
sg10
g17
sg11
Nsg12
Nsa(dp96
g6
I00
sg7
S'C_MBI1_C4_Ren_a_pt0_Y_Rep_DD_El_tau_N_ 6406_3419'
p97
sg9
I1
sg10
g24
sg11
Nsg12
Nsa(dp98
g6
I00
sg7
S'C_MBI1_C4_Ren_a_pt0_Rep_elt_DD_tau_6406_N_34_20'
p99
sg9
F8.0
sg10
g17
sg11
Nsg12
Nsa(dp100
g6
I00
sg7
S'C_MBI1_C4_Ren_a_pt0_Y_Rep_DD_El_tau_N_ 6406_3420'
p101
sg9
I1
sg10
g24
sg11
Nsg12
Nsa(dp102
g6
I00
sg7
S'C_MBI1_C4_Ren_a_pt0_Rep_elt_DD_tau_6406_N_34_21'
p103
sg9
F8.0
sg10
g17
sg11
Nsg12
Nsa(dp104
g6
I00
sg7
S'C_MBI1_C4_Ren_a_pt0_X_Rep_DD_El_tau_N_ 6406_3421'
p105
sg9
I1
sg10
g29
sg11
Nsg12
Nsa(dp106
g6
I00
sg7
S'C_MBI1_C4_Ren_a_pt0_Rep_elt_DD_tau_6406_N_34_22'
p107
sg9
F8.0
sg10
g17
sg11
Nsg12
Nsa(dp108
g6
I00
sg7
S'C_MBI1_C4_Ren_a_pt0_Y_Rep_DD_El_tau_N_ 6406_3422'
p109
sg9
I1
sg10
g24
sg11
Nsg12
Nsa(dp110
g6
I00
sg7
S'C_MBI1_C4_Ren_a_pt0_Rep_elt_DD_tau_6406_N_34_23'
p111
sg9
F8.0
sg10
g17
sg11
Nsg12
Nsa(dp112
g6
I00
sg7
S'C_MBI1_C4_Ren_a_pt0_X_Rep_DD_El_tau_N_ 6406_3423'
p113
sg9
I1
sg10
g29
sg11
Nsg12
Nsa(dp114
g6
I00
sg7
S'C_MBI1_C4_Ren_a_pt0_Rep_elt_DD_tau_6406_N_34_24'
p115
sg9
F8.0
sg10
g17
sg11
Nsg12
Nsa(dp116
g6
I00
sg7
S'C_MBI1_C4_Ren_a_pt0_X_Rep_DD_El_tau_N_ 6406_3424'
p117
sg9
I1
sg10
g29
sg11
Nsg12
Nsa(dp118
g6
I00
sg7
S'C_MBI1_C4_Ren_a_pt0_Rep_elt_DD_tau_6406_N_34_25'
p119
sg9
F8.0
sg10
g17
sg11
Nsg12
Nsa(dp120
g6
I00
sg7
S'C_MBI1_C4_Ren_a_pt0_Y_Rep_DD_El_tau_N_ 6406_3425'
p121
sg9
I1
sg10
g24
sg11
Nsg12
Nsa(dp122
g6
I00
sg7
S'C_MBI1_C4_Ren_a_pt0_Rep_elt_DD_tau_6406_N_34_26'
p123
sg9
F8.0
sg10
g17
sg11
Nsg12
Nsa(dp124
g6
I00
sg7
S'C_MBI1_C4_Ren_a_pt0_X_Rep_DD_El_tau_N_ 6406_3426'
p125
sg9
I1
sg10
g29
sg11
Nsg12
Nsa(dp126
g6
I00
sg7
S'C_MBI1_C4_Ren_a_pt0_Rep_elt_DD_tau_6406_N_34_27'
p127
sg9
F8.0
sg10
g17
sg11
Nsg12
Nsa(dp128
g6
I00
sg7
S'C_MBI1_C4_Ren_a_pt0_Y_Rep_DD_El_tau_N_ 6406_3427'
p129
sg9
I1
sg10
g24
sg11
Nsg12
Nsa(dp130
g6
I00
sg7
S'C_MBI1_C4_Ren_a_pt0_Rep_elt_DD_tau_6406_N_34_28'
p131
sg9
F8.0
sg10
g17
sg11
Nsg12
Nsa(dp132
g6
I00
sg7
S'C_MBI1_C4_Ren_a_pt0_Y_Rep_DD_El_tau_N_ 6406_3428'
p133
sg9
I1
sg10
g24
sg11
Nsg12
Nsa(dp134
g6
I00
sg7
S'C_MBI1_C4_Ren_a_pt0_Rep_elt_DD_tau_6406_N_34_29'
p135
sg9
F8.0
sg10
g17
sg11
Nsg12
Nsa(dp136
g6
I00
sg7
S'C_MBI1_C4_Ren_a_pt0_X_Rep_DD_El_tau_N_ 6406_3429'
p137
sg9
I1
sg10
g29
sg11
Nsg12
Nsa(dp138
g6
I00
sg7
S'C_MBI1_C4_Ren_a_pt0_Rep_elt_DD_tau_6406_N_34_30'
p139
sg9
F8.0
sg10
g17
sg11
Nsg12
Nsa(dp140
g6
I00
sg7
S'C_MBI1_C4_Ren_a_pt0_Y_Rep_DD_El_tau_N_ 6406_3430'
p141
sg9
I1
sg10
g24
sg11
Nsg12
Nsa(dp142
g6
I00
sg7
S'C_MBI1_C4_Ren_a_pt0_Rep_elt_DD_tau_6406_N_34_31'
p143
sg9
F8.0
sg10
g17
sg11
Nsg12
Nsa(dp144
g6
I00
sg7
S'C_MBI1_C4_Ren_a_pt0_X_Rep_DD_El_tau_N_ 6406_3431'
p145
sg9
I1
sg10
g29
sg11
Nsg12
Nsa(dp146
g6
I00
sg7
S'C_MBI1_C4_Ren_a_pt0_Rep_elt_DD_tau_6406_N_34_32'
p147
sg9
F8.0
sg10
g17
sg11
Nsg12
Nsa(dp148
g6
I00
sg7
S'C_MBI1_C4_Ren_a_pt0_X_Rep_DD_El_tau_N_ 6406_3432'
p149
sg9
I1
sg10
g29
sg11
Nsg12
Nsa(dp150
g6
I00
sg7
S'C_MBI1_C4_Ren_a_pt0_Rep_elt_DD_tau_6406_N_34_33'
p151
sg9
F8.0
sg10
g17
sg11
Nsg12
Nsa(dp152
g6
I00
sg7
S'C_MBI1_C4_Ren_a_pt0_mX_Final_DD_El_tau_N_6406_34'
p153
sg9
I1
sg10
g153
sg11
Nsg12
Nsa(dp154
g6
I00
sg7
S'C_MBI1_C4_Ren_a_pt0_Rep_elt_DD_tau_6406_N_3434'
p155
sg9
F4.0
sg10
g17
sg11
Nsg12
Nsa(dp156
g6
I00
sg7
S'C_MBI1_C4_x_pt0_tau_0_N_0'
p157
sg9
I1
sg10
g157
sg11
Nsg12
Nsa(dp158
g6
I00
sg7
S'C_MBI1_C4_RO_trig_pt0'
p159
sg9
I1
sg10
g159
sg11
g8
sg12
S'Tomo_y_pi2_init0_tau_0_N_0'
p160
sa(dp161
g6
I00
sg7
g160
sg9
I1
sg10
g160
sg11
Nsg12
Nsa(dp162
g6
I00
sg7
S'Tomo4_Ren_b_0_X_Initial_DD_El_tau_N_ 6406_34'
p163
sg9
F4.0
sg10
S'Tomo4_Ren_b_0_Rep_elt_DD_tau_6406_N_34'
p164
sg11
Nsg12
Nsa(dp165
g6
I00
sg7
S'Tomo4_Ren_b_0_X_Initial_DD_El_tau_N_ 6406_34_'
p166
sg9
I1
sg10
g163
sg11
Nsg12
Nsa(dp167
g6
I00
sg7
S'Tomo4_Ren_b_0_Rep_elt_DD_tau_6406_N_34_1'
p168
sg9
F8.0
sg10
g164
sg11
Nsg12
Nsa(dp169
g6
I00
sg7
S'Tomo4_Ren_b_0_Y_Rep_DD_El_tau_N_ 6406_341'
p170
sg9
I1
sg10
S'Tomo4_Ren_b_0_Y_Rep_DD_El_tau_N_ 6406_34'
p171
sg11
Nsg12
Nsa(dp172
g6
I00
sg7
S'Tomo4_Ren_b_0_Rep_elt_DD_tau_6406_N_34_2'
p173
sg9
F8.0
sg10
g164
sg11
Nsg12
Nsa(dp174
g6
I00
sg7
S'Tomo4_Ren_b_0_X_Rep_DD_El_tau_N_ 6406_342'
p175
sg9
I1
sg10
S'Tomo4_Ren_b_0_X_Rep_DD_El_tau_N_ 6406_34'
p176
sg11
Nsg12
Nsa(dp177
g6
I00
sg7
S'Tomo4_Ren_b_0_Rep_elt_DD_tau_6406_N_34_3'
p178
sg9
F8.0
sg10
g164
sg11
Nsg12
Nsa(dp179
g6
I00
sg7
S'Tomo4_Ren_b_0_Y_Rep_DD_El_tau_N_ 6406_343'
p180
sg9
I1
sg10
g171
sg11
Nsg12
Nsa(dp181
g6
I00
sg7
S'Tomo4_Ren_b_0_Rep_elt_DD_tau_6406_N_34_4'
p182
sg9
F8.0
sg10
g164
sg11
Nsg12
Nsa(dp183
g6
I00
sg7
S'Tomo4_Ren_b_0_Y_Rep_DD_El_tau_N_ 6406_344'
p184
sg9
I1
sg10
g171
sg11
Nsg12
Nsa(dp185
g6
I00
sg7
S'Tomo4_Ren_b_0_Rep_elt_DD_tau_6406_N_34_5'
p186
sg9
F8.0
sg10
g164
sg11
Nsg12
Nsa(dp187
g6
I00
sg7
S'Tomo4_Ren_b_0_X_Rep_DD_El_tau_N_ 6406_345'
p188
sg9
I1
sg10
g176
sg11
Nsg12
Nsa(dp189
g6
I00
sg7
S'Tomo4_Ren_b_0_Rep_elt_DD_tau_6406_N_34_6'
p190
sg9
F8.0
sg10
g164
sg11
Nsg12
Nsa(dp191
g6
I00
sg7
S'Tomo4_Ren_b_0_Y_Rep_DD_El_tau_N_ 6406_346'
p192
sg9
I1
sg10
g171
sg11
Nsg12
Nsa(dp193
g6
I00
sg7
S'Tomo4_Ren_b_0_Rep_elt_DD_tau_6406_N_34_7'
p194
sg9
F8.0
sg10
g164
sg11
Nsg12
Nsa(dp195
g6
I00
sg7
S'Tomo4_Ren_b_0_X_Rep_DD_El_tau_N_ 6406_347'
p196
sg9
I1
sg10
g176
sg11
Nsg12
Nsa(dp197
g6
I00
sg7
S'Tomo4_Ren_b_0_Rep_elt_DD_tau_6406_N_34_8'
p198
sg9
F8.0
sg10
g164
sg11
Nsg12
Nsa(dp199
g6
I00
sg7
S'Tomo4_Ren_b_0_X_Rep_DD_El_tau_N_ 6406_348'
p200
sg9
I1
sg10
g176
sg11
Nsg12
Nsa(dp201
g6
I00
sg7
S'Tomo4_Ren_b_0_Rep_elt_DD_tau_6406_N_34_9'
p202
sg9
F8.0
sg10
g164
sg11
Nsg12
Nsa(dp203
g6
I00
sg7
S'Tomo4_Ren_b_0_Y_Rep_DD_El_tau_N_ 6406_349'
p204
sg9
I1
sg10
g171
sg11
Nsg12
Nsa(dp205
g6
I00
sg7
S'Tomo4_Ren_b_0_Rep_elt_DD_tau_6406_N_34_10'
p206
sg9
F8.0
sg10
g164
sg11
Nsg12
Nsa(dp207
g6
I00
sg7
S'Tomo4_Ren_b_0_X_Rep_DD_El_tau_N_ 6406_3410'
p208
sg9
I1
sg10
g176
sg11
Nsg12
Nsa(dp209
g6
I00
sg7
S'Tomo4_Ren_b_0_Rep_elt_DD_tau_6406_N_34_11'
p210
sg9
F8.0
sg10
g164
sg11
Nsg12
Nsa(dp211
g6
I00
sg7
S'Tomo4_Ren_b_0_Y_Rep_DD_El_tau_N_ 6406_3411'
p212
sg9
I1
sg10
g171
sg11
Nsg12
Nsa(dp213
g6
I00
sg7
S'Tomo4_Ren_b_0_Rep_elt_DD_tau_6406_N_34_12'
p214
sg9
F8.0
sg10
g164
sg11
Nsg12
Nsa(dp215
g6
I00
sg7
S'Tomo4_Ren_b_0_Y_Rep_DD_El_tau_N_ 6406_3412'
p216
sg9
I1
sg10
g171
sg11
Nsg12
Nsa(dp217
g6
I00
sg7
S'Tomo4_Ren_b_0_Rep_elt_DD_tau_6406_N_34_13'
p218
sg9
F8.0
sg10
g164
sg11
Nsg12
Nsa(dp219
g6
I00
sg7
S'Tomo4_Ren_b_0_X_Rep_DD_El_tau_N_ 6406_3413'
p220
sg9
I1
sg10
g176
sg11
Nsg12
Nsa(dp221
g6
I00
sg7
S'Tomo4_Ren_b_0_Rep_elt_DD_tau_6406_N_34_14'
p222
sg9
F8.0
sg10
g164
sg11
Nsg12
Nsa(dp223
g6
I00
sg7
S'Tomo4_Ren_b_0_Y_Rep_DD_El_tau_N_ 6406_3414'
p224
sg9
I1
sg10
g171
sg11
Nsg12
Nsa(dp225
g6
I00
sg7
S'Tomo4_Ren_b_0_Rep_elt_DD_tau_6406_N_34_15'
p226
sg9
F8.0
sg10
g164
sg11
Nsg12
Nsa(dp227
g6
I00
sg7
S'Tomo4_Ren_b_0_X_Rep_DD_El_tau_N_ 6406_3415'
p228
sg9
I1
sg10
g176
sg11
Nsg12
Nsa(dp229
g6
I00
sg7
S'Tomo4_Ren_b_0_Rep_elt_DD_tau_6406_N_34_16'
p230
sg9
F8.0
sg10
g164
sg11
Nsg12
Nsa(dp231
g6
I00
sg7
S'Tomo4_Ren_b_0_X_Rep_DD_El_tau_N_ 6406_3416'
p232
sg9
I1
sg10
g176
sg11
Nsg12
Nsa(dp233
g6
I00
sg7
S'Tomo4_Ren_b_0_Rep_elt_DD_tau_6406_N_34_17'
p234
sg9
F8.0
sg10
g164
sg11
Nsg12
Nsa(dp235
g6
I00
sg7
S'Tomo4_Ren_b_0_Y_Rep_DD_El_tau_N_ 6406_3417'
p236
sg9
I1
sg10
g171
sg11
Nsg12
Nsa(dp237
g6
I00
sg7
S'Tomo4_Ren_b_0_Rep_elt_DD_tau_6406_N_34_18'
p238
sg9
F8.0
sg10
g164
sg11
Nsg12
Nsa(dp239
g6
I00
sg7
S'Tomo4_Ren_b_0_X_Rep_DD_El_tau_N_ 6406_3418'
p240
sg9
I1
sg10
g176
sg11
Nsg12
Nsa(dp241
g6
I00
sg7
S'Tomo4_Ren_b_0_Rep_elt_DD_tau_6406_N_34_19'
p242
sg9
F8.0
sg10
g164
sg11
Nsg12
Nsa(dp243
g6
I00
sg7
S'Tomo4_Ren_b_0_Y_Rep_DD_El_tau_N_ 6406_3419'
p244
sg9
I1
sg10
g171
sg11
Nsg12
Nsa(dp245
g6
I00
sg7
S'Tomo4_Ren_b_0_Rep_elt_DD_tau_6406_N_34_20'
p246
sg9
F8.0
sg10
g164
sg11
Nsg12
Nsa(dp247
g6
I00
sg7
S'Tomo4_Ren_b_0_Y_Rep_DD_El_tau_N_ 6406_3420'
p248
sg9
I1
sg10
g171
sg11
Nsg12
Nsa(dp249
g6
I00
sg7
S'Tomo4_Ren_b_0_Rep_elt_DD_tau_6406_N_34_21'
p250
sg9
F8.0
sg10
g164
sg11
Nsg12
Nsa(dp251
g6
I00
sg7
S'Tomo4_Ren_b_0_X_Rep_DD_El_tau_N_ 6406_3421'
p252
sg9
I1
sg10
g176
sg11
Nsg12
Nsa(dp253
g6
I00
sg7
S'Tomo4_Ren_b_0_Rep_elt_DD_tau_6406_N_34_22'
p254
sg9
F8.0
sg10
g164
sg11
Nsg12
Nsa(dp255
g6
I00
sg7
S'Tomo4_Ren_b_0_Y_Rep_DD_El_tau_N_ 6406_3422'
p256
sg9
I1
sg10
g171
sg11
Nsg12
Nsa(dp257
g6
I00
sg7
S'Tomo4_Ren_b_0_Rep_elt_DD_tau_6406_N_34_23'
p258
sg9
F8.0
sg10
g164
sg11
Nsg12
Nsa(dp259
g6
I00
sg7
S'Tomo4_Ren_b_0_X_Rep_DD_El_tau_N_ 6406_3423'
p260
sg9
I1
sg10
g176
sg11
Nsg12
Nsa(dp261
g6
I00
sg7
S'Tomo4_Ren_b_0_Rep_elt_DD_tau_6406_N_34_24'
p262
sg9
F8.0
sg10
g164
sg11
Nsg12
Nsa(dp263
g6
I00
sg7
S'Tomo4_Ren_b_0_X_Rep_DD_El_tau_N_ 6406_3424'
p264
sg9
I1
sg10
g176
sg11
Nsg12
Nsa(dp265
g6
I00
sg7
S'Tomo4_Ren_b_0_Rep_elt_DD_tau_6406_N_34_25'
p266
sg9
F8.0
sg10
g164
sg11
Nsg12
Nsa(dp267
g6
I00
sg7
S'Tomo4_Ren_b_0_Y_Rep_DD_El_tau_N_ 6406_3425'
p268
sg9
I1
sg10
g171
sg11
Nsg12
Nsa(dp269
g6
I00
sg7
S'Tomo4_Ren_b_0_Rep_elt_DD_tau_6406_N_34_26'
p270
sg9
F8.0
sg10
g164
sg11
Nsg12
Nsa(dp271
g6
I00
sg7
S'Tomo4_Ren_b_0_X_Rep_DD_El_tau_N_ 6406_3426'
p272
sg9
I1
sg10
g176
sg11
Nsg12
Nsa(dp273
g6
I00
sg7
S'Tomo4_Ren_b_0_Rep_elt_DD_tau_6406_N_34_27'
p274
sg9
F8.0
sg10
g164
sg11
Nsg12
Nsa(dp275
g6
I00
sg7
S'Tomo4_Ren_b_0_Y_Rep_DD_El_tau_N_ 6406_3427'
p276
sg9
I1
sg10
g171
sg11
Nsg12
Nsa(dp277
g6
I00
sg7
S'Tomo4_Ren_b_0_Rep_elt_DD_tau_6406_N_34_28'
p278
sg9
F8.0
sg10
g164
sg11
Nsg12
Nsa(dp279
g6
I00
sg7
S'Tomo4_Ren_b_0_Y_Rep_DD_El_tau_N_ 6406_3428'
p280
sg9
I1
sg10
g171
sg11
Nsg12
Nsa(dp281
g6
I00
sg7
S'Tomo4_Ren_b_0_Rep_elt_DD_tau_6406_N_34_29'
p282
sg9
F8.0
sg10
g164
sg11
Nsg12
Nsa(dp283
g6
I00
sg7
S'Tomo4_Ren_b_0_X_Rep_DD_El_tau_N_ 6406_3429'
p284
sg9
I1
sg10
g176
sg11
Nsg12
Nsa(dp285
g6
I00
sg7
S'Tomo4_Ren_b_0_Rep_elt_DD_tau_6406_N_34_30'
p286
sg9
F8.0
sg10
g164
sg11
Nsg12
Nsa(dp287
g6
I00
sg7
S'Tomo4_Ren_b_0_Y_Rep_DD_El_tau_N_ 6406_3430'
p288
sg9
I1
sg10
g171
sg11
Nsg12
Nsa(dp289
g6
I00
sg7
S'Tomo4_Ren_b_0_Rep_elt_DD_tau_6406_N_34_31'
p290
sg9
F8.0
sg10
g164
sg11
Nsg12
Nsa(dp291
g6
I00
sg7
S'Tomo4_Ren_b_0_X_Rep_DD_El_tau_N_ 6406_3431'
p292
sg9
I1
sg10
g176
sg11
Nsg12
Nsa(dp293
g6
I00
sg7
S'Tomo4_Ren_b_0_Rep_elt_DD_tau_6406_N_34_32'
p294
sg9
F8.0
sg10
g164
sg11
Nsg12
Nsa(dp295
g6
I00
sg7
S'Tomo4_Ren_b_0_X_Rep_DD_El_tau_N_ 6406_3432'
p296
sg9
I1
sg10
g176
sg11
Nsg12
Nsa(dp297
g6
I00
sg7
S'Tomo4_Ren_b_0_Rep_elt_DD_tau_6406_N_34_33'
p298
sg9
F8.0
sg10
g164
sg11
Nsg12
Nsa(dp299
g6
I00
sg7
S'Tomo4_Ren_b_0_mX_Final_DD_El_tau_N_6406_34'
p300
sg9
I1
sg10
g300
sg11
Nsg12
Nsa(dp301
g6
I00
sg7
S'Tomo4_Ren_b_0_Rep_elt_DD_tau_6406_N_3434'
p302
sg9
F4.0
sg10
g164
sg11
Nsg12
Nsa(dp303
g6
I00
sg7
S'Tomo_pi2_final_phase=90_0_tau_0_N_0'
p304
sg9
I1
sg10
g304
sg11
Nsg12
Nsa(dp305
g6
I00
sg7
S'Tomo_Trigger_0'
p306
sg9
I1
sg10
g306
sg11
Nsg12
Nsa(dp307
g6
I01
sg7
S'MBI_1'
p308
sg9
I1
sg10
g308
sg11
g308
sg12
S'C_MBI1_C4_y_pt1_tau_0_N_0'
p309
sa(dp310
g6
I01
sg7
g309
sg9
I1
sg10
g309
sg11
Nsg12
Nsa(dp311
g6
I00
sg7
S'C_MBI1_C4_Ren_a_pt1_X_Initial_DD_El_tau_N_ 6406_34'
p312
sg9
F4.0
sg10
S'C_MBI1_C4_Ren_a_pt1_Rep_elt_DD_tau_6406_N_34'
p313
sg11
Nsg12
Nsa(dp314
g6
I00
sg7
S'C_MBI1_C4_Ren_a_pt1_X_Initial_DD_El_tau_N_ 6406_34_'
p315
sg9
I1
sg10
g312
sg11
Nsg12
Nsa(dp316
g6
I00
sg7
S'C_MBI1_C4_Ren_a_pt1_Rep_elt_DD_tau_6406_N_34_1'
p317
sg9
F8.0
sg10
g313
sg11
Nsg12
Nsa(dp318
g6
I00
sg7
S'C_MBI1_C4_Ren_a_pt1_Y_Rep_DD_El_tau_N_ 6406_341'
p319
sg9
I1
sg10
S'C_MBI1_C4_Ren_a_pt1_Y_Rep_DD_El_tau_N_ 6406_34'
p320
sg11
Nsg12
Nsa(dp321
g6
I00
sg7
S'C_MBI1_C4_Ren_a_pt1_Rep_elt_DD_tau_6406_N_34_2'
p322
sg9
F8.0
sg10
g313
sg11
Nsg12
Nsa(dp323
g6
I00
sg7
S'C_MBI1_C4_Ren_a_pt1_X_Rep_DD_El_tau_N_ 6406_342'
p324
sg9
I1
sg10
S'C_MBI1_C4_Ren_a_pt1_X_Rep_DD_El_tau_N_ 6406_34'
p325
sg11
Nsg12
Nsa(dp326
g6
I00
sg7
S'C_MBI1_C4_Ren_a_pt1_Rep_elt_DD_tau_6406_N_34_3'
p327
sg9
F8.0
sg10
g313
sg11
Nsg12
Nsa(dp328
g6
I00
sg7
S'C_MBI1_C4_Ren_a_pt1_Y_Rep_DD_El_tau_N_ 6406_343'
p329
sg9
I1
sg10
g320
sg11
Nsg12
Nsa(dp330
g6
I00
sg7
S'C_MBI1_C4_Ren_a_pt1_Rep_elt_DD_tau_6406_N_34_4'
p331
sg9
F8.0
sg10
g313
sg11
Nsg12
Nsa(dp332
g6
I00
sg7
S'C_MBI1_C4_Ren_a_pt1_Y_Rep_DD_El_tau_N_ 6406_344'
p333
sg9
I1
sg10
g320
sg11
Nsg12
Nsa(dp334
g6
I00
sg7
S'C_MBI1_C4_Ren_a_pt1_Rep_elt_DD_tau_6406_N_34_5'
p335
sg9
F8.0
sg10
g313
sg11
Nsg12
Nsa(dp336
g6
I00
sg7
S'C_MBI1_C4_Ren_a_pt1_X_Rep_DD_El_tau_N_ 6406_345'
p337
sg9
I1
sg10
g325
sg11
Nsg12
Nsa(dp338
g6
I00
sg7
S'C_MBI1_C4_Ren_a_pt1_Rep_elt_DD_tau_6406_N_34_6'
p339
sg9
F8.0
sg10
g313
sg11
Nsg12
Nsa(dp340
g6
I00
sg7
S'C_MBI1_C4_Ren_a_pt1_Y_Rep_DD_El_tau_N_ 6406_346'
p341
sg9
I1
sg10
g320
sg11
Nsg12
Nsa(dp342
g6
I00
sg7
S'C_MBI1_C4_Ren_a_pt1_Rep_elt_DD_tau_6406_N_34_7'
p343
sg9
F8.0
sg10
g313
sg11
Nsg12
Nsa(dp344
g6
I00
sg7
S'C_MBI1_C4_Ren_a_pt1_X_Rep_DD_El_tau_N_ 6406_347'
p345
sg9
I1
sg10
g325
sg11
Nsg12
Nsa(dp346
g6
I00
sg7
S'C_MBI1_C4_Ren_a_pt1_Rep_elt_DD_tau_6406_N_34_8'
p347
sg9
F8.0
sg10
g313
sg11
Nsg12
Nsa(dp348
g6
I00
sg7
S'C_MBI1_C4_Ren_a_pt1_X_Rep_DD_El_tau_N_ 6406_348'
p349
sg9
I1
sg10
g325
sg11
Nsg12
Nsa(dp350
g6
I00
sg7
S'C_MBI1_C4_Ren_a_pt1_Rep_elt_DD_tau_6406_N_34_9'
p351
sg9
F8.0
sg10
g313
sg11
Nsg12
Nsa(dp352
g6
I00
sg7
S'C_MBI1_C4_Ren_a_pt1_Y_Rep_DD_El_tau_N_ 6406_349'
p353
sg9
I1
sg10
g320
sg11
Nsg12
Nsa(dp354
g6
I00
sg7
S'C_MBI1_C4_Ren_a_pt1_Rep_elt_DD_tau_6406_N_34_10'
p355
sg9
F8.0
sg10
g313
sg11
Nsg12
Nsa(dp356
g6
I00
sg7
S'C_MBI1_C4_Ren_a_pt1_X_Rep_DD_El_tau_N_ 6406_3410'
p357
sg9
I1
sg10
g325
sg11
Nsg12
Nsa(dp358
g6
I00
sg7
S'C_MBI1_C4_Ren_a_pt1_Rep_elt_DD_tau_6406_N_34_11'
p359
sg9
F8.0
sg10
g313
sg11
Nsg12
Nsa(dp360
g6
I00
sg7
S'C_MBI1_C4_Ren_a_pt1_Y_Rep_DD_El_tau_N_ 6406_3411'
p361
sg9
I1
sg10
g320
sg11
Nsg12
Nsa(dp362
g6
I00
sg7
S'C_MBI1_C4_Ren_a_pt1_Rep_elt_DD_tau_6406_N_34_12'
p363
sg9
F8.0
sg10
g313
sg11
Nsg12
Nsa(dp364
g6
I00
sg7
S'C_MBI1_C4_Ren_a_pt1_Y_Rep_DD_El_tau_N_ 6406_3412'
p365
sg9
I1
sg10
g320
sg11
Nsg12
Nsa(dp366
g6
I00
sg7
S'C_MBI1_C4_Ren_a_pt1_Rep_elt_DD_tau_6406_N_34_13'
p367
sg9
F8.0
sg10
g313
sg11
Nsg12
Nsa(dp368
g6
I00
sg7
S'C_MBI1_C4_Ren_a_pt1_X_Rep_DD_El_tau_N_ 6406_3413'
p369
sg9
I1
sg10
g325
sg11
Nsg12
Nsa(dp370
g6
I00
sg7
S'C_MBI1_C4_Ren_a_pt1_Rep_elt_DD_tau_6406_N_34_14'
p371
sg9
F8.0
sg10
g313
sg11
Nsg12
Nsa(dp372
g6
I00
sg7
S'C_MBI1_C4_Ren_a_pt1_Y_Rep_DD_El_tau_N_ 6406_3414'
p373
sg9
I1
sg10
g320
sg11
Nsg12
Nsa(dp374
g6
I00
sg7
S'C_MBI1_C4_Ren_a_pt1_Rep_elt_DD_tau_6406_N_34_15'
p375
sg9
F8.0
sg10
g313
sg11
Nsg12
Nsa(dp376
g6
I00
sg7
S'C_MBI1_C4_Ren_a_pt1_X_Rep_DD_El_tau_N_ 6406_3415'
p377
sg9
I1
sg10
g325
sg11
Nsg12
Nsa(dp378
g6
I00
sg7
S'C_MBI1_C4_Ren_a_pt1_Rep_elt_DD_tau_6406_N_34_16'
p379
sg9
F8.0
sg10
g313
sg11
Nsg12
Nsa(dp380
g6
I00
sg7
S'C_MBI1_C4_Ren_a_pt1_X_Rep_DD_El_tau_N_ 6406_3416'
p381
sg9
I1
sg10
g325
sg11
Nsg12
Nsa(dp382
g6
I00
sg7
S'C_MBI1_C4_Ren_a_pt1_Rep_elt_DD_tau_6406_N_34_17'
p383
sg9
F8.0
sg10
g313
sg11
Nsg12
Nsa(dp384
g6
I00
sg7
S'C_MBI1_C4_Ren_a_pt1_Y_Rep_DD_El_tau_N_ 6406_3417'
p385
sg9
I1
sg10
g320
sg11
Nsg12
Nsa(dp386
g6
I00
sg7
S'C_MBI1_C4_Ren_a_pt1_Rep_elt_DD_tau_6406_N_34_18'
p387
sg9
F8.0
sg10
g313
sg11
Nsg12
Nsa(dp388
g6
I00
sg7
S'C_MBI1_C4_Ren_a_pt1_X_Rep_DD_El_tau_N_ 6406_3418'
p389
sg9
I1
sg10
g325
sg11
Nsg12
Nsa(dp390
g6
I00
sg7
S'C_MBI1_C4_Ren_a_pt1_Rep_elt_DD_tau_6406_N_34_19'
p391
sg9
F8.0
sg10
g313
sg11
Nsg12
Nsa(dp392
g6
I00
sg7
S'C_MBI1_C4_Ren_a_pt1_Y_Rep_DD_El_tau_N_ 6406_3419'
p393
sg9
I1
sg10
g320
sg11
Nsg12
Nsa(dp394
g6
I00
sg7
S'C_MBI1_C4_Ren_a_pt1_Rep_elt_DD_tau_6406_N_34_20'
p395
sg9
F8.0
sg10
g313
sg11
Nsg12
Nsa(dp396
g6
I00
sg7
S'C_MBI1_C4_Ren_a_pt1_Y_Rep_DD_El_tau_N_ 6406_3420'
p397
sg9
I1
sg10
g320
sg11
Nsg12
Nsa(dp398
g6
I00
sg7
S'C_MBI1_C4_Ren_a_pt1_Rep_elt_DD_tau_6406_N_34_21'
p399
sg9
F8.0
sg10
g313
sg11
Nsg12
Nsa(dp400
g6
I00
sg7
S'C_MBI1_C4_Ren_a_pt1_X_Rep_DD_El_tau_N_ 6406_3421'
p401
sg9
I1
sg10
g325
sg11
Nsg12
Nsa(dp402
g6
I00
sg7
S'C_MBI1_C4_Ren_a_pt1_Rep_elt_DD_tau_6406_N_34_22'
p403
sg9
F8.0
sg10
g313
sg11
Nsg12
Nsa(dp404
g6
I00
sg7
S'C_MBI1_C4_Ren_a_pt1_Y_Rep_DD_El_tau_N_ 6406_3422'
p405
sg9
I1
sg10
g320
sg11
Nsg12
Nsa(dp406
g6
I00
sg7
S'C_MBI1_C4_Ren_a_pt1_Rep_elt_DD_tau_6406_N_34_23'
p407
sg9
F8.0
sg10
g313
sg11
Nsg12
Nsa(dp408
g6
I00
sg7
S'C_MBI1_C4_Ren_a_pt1_X_Rep_DD_El_tau_N_ 6406_3423'
p409
sg9
I1
sg10
g325
sg11
Nsg12
Nsa(dp410
g6
I00
sg7
S'C_MBI1_C4_Ren_a_pt1_Rep_elt_DD_tau_6406_N_34_24'
p411
sg9
F8.0
sg10
g313
sg11
Nsg12
Nsa(dp412
g6
I00
sg7
S'C_MBI1_C4_Ren_a_pt1_X_Rep_DD_El_tau_N_ 6406_3424'
p413
sg9
I1
sg10
g325
sg11
Nsg12
Nsa(dp414
g6
I00
sg7
S'C_MBI1_C4_Ren_a_pt1_Rep_elt_DD_tau_6406_N_34_25'
p415
sg9
F8.0
sg10
g313
sg11
Nsg12
Nsa(dp416
g6
I00
sg7
S'C_MBI1_C4_Ren_a_pt1_Y_Rep_DD_El_tau_N_ 6406_3425'
p417
sg9
I1
sg10
g320
sg11
Nsg12
Nsa(dp418
g6
I00
sg7
S'C_MBI1_C4_Ren_a_pt1_Rep_elt_DD_tau_6406_N_34_26'
p419
sg9
F8.0
sg10
g313
sg11
Nsg12
Nsa(dp420
g6
I00
sg7
S'C_MBI1_C4_Ren_a_pt1_X_Rep_DD_El_tau_N_ 6406_3426'
p421
sg9
I1
sg10
g325
sg11
Nsg12
Nsa(dp422
g6
I00
sg7
S'C_MBI1_C4_Ren_a_pt1_Rep_elt_DD_tau_6406_N_34_27'
p423
sg9
F8.0
sg10
g313
sg11
Nsg12
Nsa(dp424
g6
I00
sg7
S'C_MBI1_C4_Ren_a_pt1_Y_Rep_DD_El_tau_N_ 6406_3427'
p425
sg9
I1
sg10
g320
sg11
Nsg12
Nsa(dp426
g6
I00
sg7
S'C_MBI1_C4_Ren_a_pt1_Rep_elt_DD_tau_6406_N_34_28'
p427
sg9
F8.0
sg10
g313
sg11
Nsg12
Nsa(dp428
g6
I00
sg7
S'C_MBI1_C4_Ren_a_pt1_Y_Rep_DD_El_tau_N_ 6406_3428'
p429
sg9
I1
sg10
g320
sg11
Nsg12
Nsa(dp430
g6
I00
sg7
S'C_MBI1_C4_Ren_a_pt1_Rep_elt_DD_tau_6406_N_34_29'
p431
sg9
F8.0
sg10
g313
sg11
Nsg12
Nsa(dp432
g6
I00
sg7
S'C_MBI1_C4_Ren_a_pt1_X_Rep_DD_El_tau_N_ 6406_3429'
p433
sg9
I1
sg10
g325
sg11
Nsg12
Nsa(dp434
g6
I00
sg7
S'C_MBI1_C4_Ren_a_pt1_Rep_elt_DD_tau_6406_N_34_30'
p435
sg9
F8.0
sg10
g313
sg11
Nsg12
Nsa(dp436
g6
I00
sg7
S'C_MBI1_C4_Ren_a_pt1_Y_Rep_DD_El_tau_N_ 6406_3430'
p437
sg9
I1
sg10
g320
sg11
Nsg12
Nsa(dp438
g6
I00
sg7
S'C_MBI1_C4_Ren_a_pt1_Rep_elt_DD_tau_6406_N_34_31'
p439
sg9
F8.0
sg10
g313
sg11
Nsg12
Nsa(dp440
g6
I00
sg7
S'C_MBI1_C4_Ren_a_pt1_X_Rep_DD_El_tau_N_ 6406_3431'
p441
sg9
I1
sg10
g325
sg11
Nsg12
Nsa(dp442
g6
I00
sg7
S'C_MBI1_C4_Ren_a_pt1_Rep_elt_DD_tau_6406_N_34_32'
p443
sg9
F8.0
sg10
g313
sg11
Nsg12
Nsa(dp444
g6
I00
sg7
S'C_MBI1_C4_Ren_a_pt1_X_Rep_DD_El_tau_N_ 6406_3432'
p445
sg9
I1
sg10
g325
sg11
Nsg12
Nsa(dp446
g6
I00
sg7
S'C_MBI1_C4_Ren_a_pt1_Rep_elt_DD_tau_6406_N_34_33'
p447
sg9
F8.0
sg10
g313
sg11
Nsg12
Nsa(dp448
g6
I00
sg7
S'C_MBI1_C4_Ren_a_pt1_mX_Final_DD_El_tau_N_6406_34'
p449
sg9
I1
sg10
g449
sg11
Nsg12
Nsa(dp450
g6
I00
sg7
S'C_MBI1_C4_Ren_a_pt1_Rep_elt_DD_tau_6406_N_3434'
p451
sg9
F4.0
sg10
g313
sg11
Nsg12
Nsa(dp452
g6
I00
sg7
S'C_MBI1_C4_x_pt1_tau_0_N_0'
p453
sg9
I1
sg10
g453
sg11
Nsg12
Nsa(dp454
g6
I00
sg7
S'C_MBI1_C4_RO_trig_pt1'
p455
sg9
I1
sg10
g455
sg11
g308
sg12
S'Tomo_y_pi2_init1_tau_0_N_0'
p456
sa(dp457
g6
I00
sg7
g456
sg9
I1
sg10
g456
sg11
Nsg12
Nsa(dp458
g6
I00
sg7
S'Tomo4_Ren_b_1_X_Initial_DD_El_tau_N_ 6406_34'
p459
sg9
F4.0
sg10
S'Tomo4_Ren_b_1_Rep_elt_DD_tau_6406_N_34'
p460
sg11
Nsg12
Nsa(dp461
g6
I00
sg7
S'Tomo4_Ren_b_1_X_Initial_DD_El_tau_N_ 6406_34_'
p462
sg9
I1
sg10
g459
sg11
Nsg12
Nsa(dp463
g6
I00
sg7
S'Tomo4_Ren_b_1_Rep_elt_DD_tau_6406_N_34_1'
p464
sg9
F8.0
sg10
g460
sg11
Nsg12
Nsa(dp465
g6
I00
sg7
S'Tomo4_Ren_b_1_Y_Rep_DD_El_tau_N_ 6406_341'
p466
sg9
I1
sg10
S'Tomo4_Ren_b_1_Y_Rep_DD_El_tau_N_ 6406_34'
p467
sg11
Nsg12
Nsa(dp468
g6
I00
sg7
S'Tomo4_Ren_b_1_Rep_elt_DD_tau_6406_N_34_2'
p469
sg9
F8.0
sg10
g460
sg11
Nsg12
Nsa(dp470
g6
I00
sg7
S'Tomo4_Ren_b_1_X_Rep_DD_El_tau_N_ 6406_342'
p471
sg9
I1
sg10
S'Tomo4_Ren_b_1_X_Rep_DD_El_tau_N_ 6406_34'
p472
sg11
Nsg12
Nsa(dp473
g6
I00
sg7
S'Tomo4_Ren_b_1_Rep_elt_DD_tau_6406_N_34_3'
p474
sg9
F8.0
sg10
g460
sg11
Nsg12
Nsa(dp475
g6
I00
sg7
S'Tomo4_Ren_b_1_Y_Rep_DD_El_tau_N_ 6406_343'
p476
sg9
I1
sg10
g467
sg11
Nsg12
Nsa(dp477
g6
I00
sg7
S'Tomo4_Ren_b_1_Rep_elt_DD_tau_6406_N_34_4'
p478
sg9
F8.0
sg10
g460
sg11
Nsg12
Nsa(dp479
g6
I00
sg7
S'Tomo4_Ren_b_1_Y_Rep_DD_El_tau_N_ 6406_344'
p480
sg9
I1
sg10
g467
sg11
Nsg12
Nsa(dp481
g6
I00
sg7
S'Tomo4_Ren_b_1_Rep_elt_DD_tau_6406_N_34_5'
p482
sg9
F8.0
sg10
g460
sg11
Nsg12
Nsa(dp483
g6
I00
sg7
S'Tomo4_Ren_b_1_X_Rep_DD_El_tau_N_ 6406_345'
p484
sg9
I1
sg10
g472
sg11
Nsg12
Nsa(dp485
g6
I00
sg7
S'Tomo4_Ren_b_1_Rep_elt_DD_tau_6406_N_34_6'
p486
sg9
F8.0
sg10
g460
sg11
Nsg12
Nsa(dp487
g6
I00
sg7
S'Tomo4_Ren_b_1_Y_Rep_DD_El_tau_N_ 6406_346'
p488
sg9
I1
sg10
g467
sg11
Nsg12
Nsa(dp489
g6
I00
sg7
S'Tomo4_Ren_b_1_Rep_elt_DD_tau_6406_N_34_7'
p490
sg9
F8.0
sg10
g460
sg11
Nsg12
Nsa(dp491
g6
I00
sg7
S'Tomo4_Ren_b_1_X_Rep_DD_El_tau_N_ 6406_347'
p492
sg9
I1
sg10
g472
sg11
Nsg12
Nsa(dp493
g6
I00
sg7
S'Tomo4_Ren_b_1_Rep_elt_DD_tau_6406_N_34_8'
p494
sg9
F8.0
sg10
g460
sg11
Nsg12
Nsa(dp495
g6
I00
sg7
S'Tomo4_Ren_b_1_X_Rep_DD_El_tau_N_ 6406_348'
p496
sg9
I1
sg10
g472
sg11
Nsg12
Nsa(dp497
g6
I00
sg7
S'Tomo4_Ren_b_1_Rep_elt_DD_tau_6406_N_34_9'
p498
sg9
F8.0
sg10
g460
sg11
Nsg12
Nsa(dp499
g6
I00
sg7
S'Tomo4_Ren_b_1_Y_Rep_DD_El_tau_N_ 6406_349'
p500
sg9
I1
sg10
g467
sg11
Nsg12
Nsa(dp501
g6
I00
sg7
S'Tomo4_Ren_b_1_Rep_elt_DD_tau_6406_N_34_10'
p502
sg9
F8.0
sg10
g460
sg11
Nsg12
Nsa(dp503
g6
I00
sg7
S'Tomo4_Ren_b_1_X_Rep_DD_El_tau_N_ 6406_3410'
p504
sg9
I1
sg10
g472
sg11
Nsg12
Nsa(dp505
g6
I00
sg7
S'Tomo4_Ren_b_1_Rep_elt_DD_tau_6406_N_34_11'
p506
sg9
F8.0
sg10
g460
sg11
Nsg12
Nsa(dp507
g6
I00
sg7
S'Tomo4_Ren_b_1_Y_Rep_DD_El_tau_N_ 6406_3411'
p508
sg9
I1
sg10
g467
sg11
Nsg12
Nsa(dp509
g6
I00
sg7
S'Tomo4_Ren_b_1_Rep_elt_DD_tau_6406_N_34_12'
p510
sg9
F8.0
sg10
g460
sg11
Nsg12
Nsa(dp511
g6
I00
sg7
S'Tomo4_Ren_b_1_Y_Rep_DD_El_tau_N_ 6406_3412'
p512
sg9
I1
sg10
g467
sg11
Nsg12
Nsa(dp513
g6
I00
sg7
S'Tomo4_Ren_b_1_Rep_elt_DD_tau_6406_N_34_13'
p514
sg9
F8.0
sg10
g460
sg11
Nsg12
Nsa(dp515
g6
I00
sg7
S'Tomo4_Ren_b_1_X_Rep_DD_El_tau_N_ 6406_3413'
p516
sg9
I1
sg10
g472
sg11
Nsg12
Nsa(dp517
g6
I00
sg7
S'Tomo4_Ren_b_1_Rep_elt_DD_tau_6406_N_34_14'
p518
sg9
F8.0
sg10
g460
sg11
Nsg12
Nsa(dp519
g6
I00
sg7
S'Tomo4_Ren_b_1_Y_Rep_DD_El_tau_N_ 6406_3414'
p520
sg9
I1
sg10
g467
sg11
Nsg12
Nsa(dp521
g6
I00
sg7
S'Tomo4_Ren_b_1_Rep_elt_DD_tau_6406_N_34_15'
p522
sg9
F8.0
sg10
g460
sg11
Nsg12
Nsa(dp523
g6
I00
sg7
S'Tomo4_Ren_b_1_X_Rep_DD_El_tau_N_ 6406_3415'
p524
sg9
I1
sg10
g472
sg11
Nsg12
Nsa(dp525
g6
I00
sg7
S'Tomo4_Ren_b_1_Rep_elt_DD_tau_6406_N_34_16'
p526
sg9
F8.0
sg10
g460
sg11
Nsg12
Nsa(dp527
g6
I00
sg7
S'Tomo4_Ren_b_1_X_Rep_DD_El_tau_N_ 6406_3416'
p528
sg9
I1
sg10
g472
sg11
Nsg12
Nsa(dp529
g6
I00
sg7
S'Tomo4_Ren_b_1_Rep_elt_DD_tau_6406_N_34_17'
p530
sg9
F8.0
sg10
g460
sg11
Nsg12
Nsa(dp531
g6
I00
sg7
S'Tomo4_Ren_b_1_Y_Rep_DD_El_tau_N_ 6406_3417'
p532
sg9
I1
sg10
g467
sg11
Nsg12
Nsa(dp533
g6
I00
sg7
S'Tomo4_Ren_b_1_Rep_elt_DD_tau_6406_N_34_18'
p534
sg9
F8.0
sg10
g460
sg11
Nsg12
Nsa(dp535
g6
I00
sg7
S'Tomo4_Ren_b_1_X_Rep_DD_El_tau_N_ 6406_3418'
p536
sg9
I1
sg10
g472
sg11
Nsg12
Nsa(dp537
g6
I00
sg7
S'Tomo4_Ren_b_1_Rep_elt_DD_tau_6406_N_34_19'
p538
sg9
F8.0
sg10
g460
sg11
Nsg12
Nsa(dp539
g6
I00
sg7
S'Tomo4_Ren_b_1_Y_Rep_DD_El_tau_N_ 6406_3419'
p540
sg9
I1
sg10
g467
sg11
Nsg12
Nsa(dp541
g6
I00
sg7
S'Tomo4_Ren_b_1_Rep_elt_DD_tau_6406_N_34_20'
p542
sg9
F8.0
sg10
g460
sg11
Nsg12
Nsa(dp543
g6
I00
sg7
S'Tomo4_Ren_b_1_Y_Rep_DD_El_tau_N_ 6406_3420'
p544
sg9
I1
sg10
g467
sg11
Nsg12
Nsa(dp545
g6
I00
sg7
S'Tomo4_Ren_b_1_Rep_elt_DD_tau_6406_N_34_21'
p546
sg9
F8.0
sg10
g460
sg11
Nsg12
Nsa(dp547
g6
I00
sg7
S'Tomo4_Ren_b_1_X_Rep_DD_El_tau_N_ 6406_3421'
p548
sg9
I1
sg10
g472
sg11
Nsg12
Nsa(dp549
g6
I00
sg7
S'Tomo4_Ren_b_1_Rep_elt_DD_tau_6406_N_34_22'
p550
sg9
F8.0
sg10
g460
sg11
Nsg12
Nsa(dp551
g6
I00
sg7
S'Tomo4_Ren_b_1_Y_Rep_DD_El_tau_N_ 6406_3422'
p552
sg9
I1
sg10
g467
sg11
Nsg12
Nsa(dp553
g6
I00
sg7
S'Tomo4_Ren_b_1_Rep_elt_DD_tau_6406_N_34_23'
p554
sg9
F8.0
sg10
g460
sg11
Nsg12
Nsa(dp555
g6
I00
sg7
S'Tomo4_Ren_b_1_X_Rep_DD_El_tau_N_ 6406_3423'
p556
sg9
I1
sg10
g472
sg11
Nsg12
Nsa(dp557
g6
I00
sg7
S'Tomo4_Ren_b_1_Rep_elt_DD_tau_6406_N_34_24'
p558
sg9
F8.0
sg10
g460
sg11
Nsg12
Nsa(dp559
g6
I00
sg7
S'Tomo4_Ren_b_1_X_Rep_DD_El_tau_N_ 6406_3424'
p560
sg9
I1
sg10
g472
sg11
Nsg12
Nsa(dp561
g6
I00
sg7
S'Tomo4_Ren_b_1_Rep_elt_DD_tau_6406_N_34_25'
p562
sg9
F8.0
sg10
g460
sg11
Nsg12
Nsa(dp563
g6
I00
sg7
S'Tomo4_Ren_b_1_Y_Rep_DD_El_tau_N_ 6406_3425'
p564
sg9
I1
sg10
g467
sg11
Nsg12
Nsa(dp565
g6
I00
sg7
S'Tomo4_Ren_b_1_Rep_elt_DD_tau_6406_N_34_26'
p566
sg9
F8.0
sg10
g460
sg11
Nsg12
Nsa(dp567
g6
I00
sg7
S'Tomo4_Ren_b_1_X_Rep_DD_El_tau_N_ 6406_3426'
p568
sg9
I1
sg10
g472
sg11
Nsg12
Nsa(dp569
g6
I00
sg7
S'Tomo4_Ren_b_1_Rep_elt_DD_tau_6406_N_34_27'
p570
sg9
F8.0
sg10
g460
sg11
Nsg12
Nsa(dp571
g6
I00
sg7
S'Tomo4_Ren_b_1_Y_Rep_DD_El_tau_N_ 6406_3427'
p572
sg9
I1
sg10
g467
sg11
Nsg12
Nsa(dp573
g6
I00
sg7
S'Tomo4_Ren_b_1_Rep_elt_DD_tau_6406_N_34_28'
p574
sg9
F8.0
sg10
g460
sg11
Nsg12
Nsa(dp575
g6
I00
sg7
S'Tomo4_Ren_b_1_Y_Rep_DD_El_tau_N_ 6406_3428'
p576
sg9
I1
sg10
g467
sg11
Nsg12
Nsa(dp577
g6
I00
sg7
S'Tomo4_Ren_b_1_Rep_elt_DD_tau_6406_N_34_29'
p578
sg9
F8.0
sg10
g460
sg11
Nsg12
Nsa(dp579
g6
I00
sg7
S'Tomo4_Ren_b_1_X_Rep_DD_El_tau_N_ 6406_3429'
p580
sg9
I1
sg10
g472
sg11
Nsg12
Nsa(dp581
g6
I00
sg7
S'Tomo4_Ren_b_1_Rep_elt_DD_tau_6406_N_34_30'
p582
sg9
F8.0
sg10
g460
sg11
Nsg12
Nsa(dp583
g6
I00
sg7
S'Tomo4_Ren_b_1_Y_Rep_DD_El_tau_N_ 6406_3430'
p584
sg9
I1
sg10
g467
sg11
Nsg12
Nsa(dp585
g6
I00
sg7
S'Tomo4_Ren_b_1_Rep_elt_DD_tau_6406_N_34_31'
p586
sg9
F8.0
sg10
g460
sg11
Nsg12
Nsa(dp587
g6
I00
sg7
S'Tomo4_Ren_b_1_X_Rep_DD_El_tau_N_ 6406_3431'
p588
sg9
I1
sg10
g472
sg11
Nsg12
Nsa(dp589
g6
I00
sg7
S'Tomo4_Ren_b_1_Rep_elt_DD_tau_6406_N_34_32'
p590
sg9
F8.0
sg10
g460
sg11
Nsg12
Nsa(dp591
g6
I00
sg7
S'Tomo4_Ren_b_1_X_Rep_DD_El_tau_N_ 6406_3432'
p592
sg9
I1
sg10
g472
sg11
Nsg12
Nsa(dp593
g6
I00
sg7
S'Tomo4_Ren_b_1_Rep_elt_DD_tau_6406_N_34_33'
p594
sg9
F8.0
sg10
g460
sg11
Nsg12
Nsa(dp595
g6
I00
sg7
S'Tomo4_Ren_b_1_mX_Final_DD_El_tau_N_6406_34'
p596
sg9
I1
sg10
g596
sg11
Nsg12
Nsa(dp597
g6
I00
sg7
S'Tomo4_Ren_b_1_Rep_elt_DD_tau_6406_N_3434'
p598
sg9
F4.0
sg10
g460
sg11
Nsg12
Nsa(dp599
g6
I00
sg7
S'Tomo_pi2_final_phase=90_1_tau_0_N_0'
p600
sg9
I1
sg10
g600
sg11
Nsg12
Nsa(dp601
g6
I00
sg7
S'Tomo_Trigger_1'
p602
sg9
I1
sg10
g602
sg11
Nsg12
Nsa(dp603
g6
I01
sg7
S'MBI_2'
p604
sg9
I1
sg10
g604
sg11
g604
sg12
S'C_MBI1_C4_y_pt2_tau_0_N_0'
p605
sa(dp606
g6
I01
sg7
g605
sg9
I1
sg10
g605
sg11
Nsg12
Nsa(dp607
g6
I00
sg7
S'C_MBI1_C4_Ren_a_pt2_X_Initial_DD_El_tau_N_ 6406_34'
p608
sg9
F4.0
sg10
S'C_MBI1_C4_Ren_a_pt2_Rep_elt_DD_tau_6406_N_34'
p609
sg11
Nsg12
Nsa(dp610
g6
I00
sg7
S'C_MBI1_C4_Ren_a_pt2_X_Initial_DD_El_tau_N_ 6406_34_'
p611
sg9
I1
sg10
g608
sg11
Nsg12
Nsa(dp612
g6
I00
sg7
S'C_MBI1_C4_Ren_a_pt2_Rep_elt_DD_tau_6406_N_34_1'
p613
sg9
F8.0
sg10
g609
sg11
Nsg12
Nsa(dp614
g6
I00
sg7
S'C_MBI1_C4_Ren_a_pt2_Y_Rep_DD_El_tau_N_ 6406_341'
p615
sg9
I1
sg10
S'C_MBI1_C4_Ren_a_pt2_Y_Rep_DD_El_tau_N_ 6406_34'
p616
sg11
Nsg12
Nsa(dp617
g6
I00
sg7
S'C_MBI1_C4_Ren_a_pt2_Rep_elt_DD_tau_6406_N_34_2'
p618
sg9
F8.0
sg10
g609
sg11
Nsg12
Nsa(dp619
g6
I00
sg7
S'C_MBI1_C4_Ren_a_pt2_X_Rep_DD_El_tau_N_ 6406_342'
p620
sg9
I1
sg10
S'C_MBI1_C4_Ren_a_pt2_X_Rep_DD_El_tau_N_ 6406_34'
p621
sg11
Nsg12
Nsa(dp622
g6
I00
sg7
S'C_MBI1_C4_Ren_a_pt2_Rep_elt_DD_tau_6406_N_34_3'
p623
sg9
F8.0
sg10
g609
sg11
Nsg12
Nsa(dp624
g6
I00
sg7
S'C_MBI1_C4_Ren_a_pt2_Y_Rep_DD_El_tau_N_ 6406_343'
p625
sg9
I1
sg10
g616
sg11
Nsg12
Nsa(dp626
g6
I00
sg7
S'C_MBI1_C4_Ren_a_pt2_Rep_elt_DD_tau_6406_N_34_4'
p627
sg9
F8.0
sg10
g609
sg11
Nsg12
Nsa(dp628
g6
I00
sg7
S'C_MBI1_C4_Ren_a_pt2_Y_Rep_DD_El_tau_N_ 6406_344'
p629
sg9
I1
sg10
g616
sg11
Nsg12
Nsa(dp630
g6
I00
sg7
S'C_MBI1_C4_Ren_a_pt2_Rep_elt_DD_tau_6406_N_34_5'
p631
sg9
F8.0
sg10
g609
sg11
Nsg12
Nsa(dp632
g6
I00
sg7
S'C_MBI1_C4_Ren_a_pt2_X_Rep_DD_El_tau_N_ 6406_345'
p633
sg9
I1
sg10
g621
sg11
Nsg12
Nsa(dp634
g6
I00
sg7
S'C_MBI1_C4_Ren_a_pt2_Rep_elt_DD_tau_6406_N_34_6'
p635
sg9
F8.0
sg10
g609
sg11
Nsg12
Nsa(dp636
g6
I00
sg7
S'C_MBI1_C4_Ren_a_pt2_Y_Rep_DD_El_tau_N_ 6406_346'
p637
sg9
I1
sg10
g616
sg11
Nsg12
Nsa(dp638
g6
I00
sg7
S'C_MBI1_C4_Ren_a_pt2_Rep_elt_DD_tau_6406_N_34_7'
p639
sg9
F8.0
sg10
g609
sg11
Nsg12
Nsa(dp640
g6
I00
sg7
S'C_MBI1_C4_Ren_a_pt2_X_Rep_DD_El_tau_N_ 6406_347'
p641
sg9
I1
sg10
g621
sg11
Nsg12
Nsa(dp642
g6
I00
sg7
S'C_MBI1_C4_Ren_a_pt2_Rep_elt_DD_tau_6406_N_34_8'
p643
sg9
F8.0
sg10
g609
sg11
Nsg12
Nsa(dp644
g6
I00
sg7
S'C_MBI1_C4_Ren_a_pt2_X_Rep_DD_El_tau_N_ 6406_348'
p645
sg9
I1
sg10
g621
sg11
Nsg12
Nsa(dp646
g6
I00
sg7
S'C_MBI1_C4_Ren_a_pt2_Rep_elt_DD_tau_6406_N_34_9'
p647
sg9
F8.0
sg10
g609
sg11
Nsg12
Nsa(dp648
g6
I00
sg7
S'C_MBI1_C4_Ren_a_pt2_Y_Rep_DD_El_tau_N_ 6406_349'
p649
sg9
I1
sg10
g616
sg11
Nsg12
Nsa(dp650
g6
I00
sg7
S'C_MBI1_C4_Ren_a_pt2_Rep_elt_DD_tau_6406_N_34_10'
p651
sg9
F8.0
sg10
g609
sg11
Nsg12
Nsa(dp652
g6
I00
sg7
S'C_MBI1_C4_Ren_a_pt2_X_Rep_DD_El_tau_N_ 6406_3410'
p653
sg9
I1
sg10
g621
sg11
Nsg12
Nsa(dp654
g6
I00
sg7
S'C_MBI1_C4_Ren_a_pt2_Rep_elt_DD_tau_6406_N_34_11'
p655
sg9
F8.0
sg10
g609
sg11
Nsg12
Nsa(dp656
g6
I00
sg7
S'C_MBI1_C4_Ren_a_pt2_Y_Rep_DD_El_tau_N_ 6406_3411'
p657
sg9
I1
sg10
g616
sg11
Nsg12
Nsa(dp658
g6
I00
sg7
S'C_MBI1_C4_Ren_a_pt2_Rep_elt_DD_tau_6406_N_34_12'
p659
sg9
F8.0
sg10
g609
sg11
Nsg12
Nsa(dp660
g6
I00
sg7
S'C_MBI1_C4_Ren_a_pt2_Y_Rep_DD_El_tau_N_ 6406_3412'
p661
sg9
I1
sg10
g616
sg11
Nsg12
Nsa(dp662
g6
I00
sg7
S'C_MBI1_C4_Ren_a_pt2_Rep_elt_DD_tau_6406_N_34_13'
p663
sg9
F8.0
sg10
g609
sg11
Nsg12
Nsa(dp664
g6
I00
sg7
S'C_MBI1_C4_Ren_a_pt2_X_Rep_DD_El_tau_N_ 6406_3413'
p665
sg9
I1
sg10
g621
sg11
Nsg12
Nsa(dp666
g6
I00
sg7
S'C_MBI1_C4_Ren_a_pt2_Rep_elt_DD_tau_6406_N_34_14'
p667
sg9
F8.0
sg10
g609
sg11
Nsg12
Nsa(dp668
g6
I00
sg7
S'C_MBI1_C4_Ren_a_pt2_Y_Rep_DD_El_tau_N_ 6406_3414'
p669
sg9
I1
sg10
g616
sg11
Nsg12
Nsa(dp670
g6
I00
sg7
S'C_MBI1_C4_Ren_a_pt2_Rep_elt_DD_tau_6406_N_34_15'
p671
sg9
F8.0
sg10
g609
sg11
Nsg12
Nsa(dp672
g6
I00
sg7
S'C_MBI1_C4_Ren_a_pt2_X_Rep_DD_El_tau_N_ 6406_3415'
p673
sg9
I1
sg10
g621
sg11
Nsg12
Nsa(dp674
g6
I00
sg7
S'C_MBI1_C4_Ren_a_pt2_Rep_elt_DD_tau_6406_N_34_16'
p675
sg9
F8.0
sg10
g609
sg11
Nsg12
Nsa(dp676
g6
I00
sg7
S'C_MBI1_C4_Ren_a_pt2_X_Rep_DD_El_tau_N_ 6406_3416'
p677
sg9
I1
sg10
g621
sg11
Nsg12
Nsa(dp678
g6
I00
sg7
S'C_MBI1_C4_Ren_a_pt2_Rep_elt_DD_tau_6406_N_34_17'
p679
sg9
F8.0
sg10
g609
sg11
Nsg12
Nsa(dp680
g6
I00
sg7
S'C_MBI1_C4_Ren_a_pt2_Y_Rep_DD_El_tau_N_ 6406_3417'
p681
sg9
I1
sg10
g616
sg11
Nsg12
Nsa(dp682
g6
I00
sg7
S'C_MBI1_C4_Ren_a_pt2_Rep_elt_DD_tau_6406_N_34_18'
p683
sg9
F8.0
sg10
g609
sg11
Nsg12
Nsa(dp684
g6
I00
sg7
S'C_MBI1_C4_Ren_a_pt2_X_Rep_DD_El_tau_N_ 6406_3418'
p685
sg9
I1
sg10
g621
sg11
Nsg12
Nsa(dp686
g6
I00
sg7
S'C_MBI1_C4_Ren_a_pt2_Rep_elt_DD_tau_6406_N_34_19'
p687
sg9
F8.0
sg10
g609
sg11
Nsg12
Nsa(dp688
g6
I00
sg7
S'C_MBI1_C4_Ren_a_pt2_Y_Rep_DD_El_tau_N_ 6406_3419'
p689
sg9
I1
sg10
g616
sg11
Nsg12
Nsa(dp690
g6
I00
sg7
S'C_MBI1_C4_Ren_a_pt2_Rep_elt_DD_tau_6406_N_34_20'
p691
sg9
F8.0
sg10
g609
sg11
Nsg12
Nsa(dp692
g6
I00
sg7
S'C_MBI1_C4_Ren_a_pt2_Y_Rep_DD_El_tau_N_ 6406_3420'
p693
sg9
I1
sg10
g616
sg11
Nsg12
Nsa(dp694
g6
I00
sg7
S'C_MBI1_C4_Ren_a_pt2_Rep_elt_DD_tau_6406_N_34_21'
p695
sg9
F8.0
sg10
g609
sg11
Nsg12
Nsa(dp696
g6
I00
sg7
S'C_MBI1_C4_Ren_a_pt2_X_Rep_DD_El_tau_N_ 6406_3421'
p697
sg9
I1
sg10
g621
sg11
Nsg12
Nsa(dp698
g6
I00
sg7
S'C_MBI1_C4_Ren_a_pt2_Rep_elt_DD_tau_6406_N_34_22'
p699
sg9
F8.0
sg10
g609
sg11
Nsg12
Nsa(dp700
g6
I00
sg7
S'C_MBI1_C4_Ren_a_pt2_Y_Rep_DD_El_tau_N_ 6406_3422'
p701
sg9
I1
sg10
g616
sg11
Nsg12
Nsa(dp702
g6
I00
sg7
S'C_MBI1_C4_Ren_a_pt2_Rep_elt_DD_tau_6406_N_34_23'
p703
sg9
F8.0
sg10
g609
sg11
Nsg12
Nsa(dp704
g6
I00
sg7
S'C_MBI1_C4_Ren_a_pt2_X_Rep_DD_El_tau_N_ 6406_3423'
p705
sg9
I1
sg10
g621
sg11
Nsg12
Nsa(dp706
g6
I00
sg7
S'C_MBI1_C4_Ren_a_pt2_Rep_elt_DD_tau_6406_N_34_24'
p707
sg9
F8.0
sg10
g609
sg11
Nsg12
Nsa(dp708
g6
I00
sg7
S'C_MBI1_C4_Ren_a_pt2_X_Rep_DD_El_tau_N_ 6406_3424'
p709
sg9
I1
sg10
g621
sg11
Nsg12
Nsa(dp710
g6
I00
sg7
S'C_MBI1_C4_Ren_a_pt2_Rep_elt_DD_tau_6406_N_34_25'
p711
sg9
F8.0
sg10
g609
sg11
Nsg12
Nsa(dp712
g6
I00
sg7
S'C_MBI1_C4_Ren_a_pt2_Y_Rep_DD_El_tau_N_ 6406_3425'
p713
sg9
I1
sg10
g616
sg11
Nsg12
Nsa(dp714
g6
I00
sg7
S'C_MBI1_C4_Ren_a_pt2_Rep_elt_DD_tau_6406_N_34_26'
p715
sg9
F8.0
sg10
g609
sg11
Nsg12
Nsa(dp716
g6
I00
sg7
S'C_MBI1_C4_Ren_a_pt2_X_Rep_DD_El_tau_N_ 6406_3426'
p717
sg9
I1
sg10
g621
sg11
Nsg12
Nsa(dp718
g6
I00
sg7
S'C_MBI1_C4_Ren_a_pt2_Rep_elt_DD_tau_6406_N_34_27'
p719
sg9
F8.0
sg10
g609
sg11
Nsg12
Nsa(dp720
g6
I00
sg7
S'C_MBI1_C4_Ren_a_pt2_Y_Rep_DD_El_tau_N_ 6406_3427'
p721
sg9
I1
sg10
g616
sg11
Nsg12
Nsa(dp722
g6
I00
sg7
S'C_MBI1_C4_Ren_a_pt2_Rep_elt_DD_tau_6406_N_34_28'
p723
sg9
F8.0
sg10
g609
sg11
Nsg12
Nsa(dp724
g6
I00
sg7
S'C_MBI1_C4_Ren_a_pt2_Y_Rep_DD_El_tau_N_ 6406_3428'
p725
sg9
I1
sg10
g616
sg11
Nsg12
Nsa(dp726
g6
I00
sg7
S'C_MBI1_C4_Ren_a_pt2_Rep_elt_DD_tau_6406_N_34_29'
p727
sg9
F8.0
sg10
g609
sg11
Nsg12
Nsa(dp728
g6
I00
sg7
S'C_MBI1_C4_Ren_a_pt2_X_Rep_DD_El_tau_N_ 6406_3429'
p729
sg9
I1
sg10
g621
sg11
Nsg12
Nsa(dp730
g6
I00
sg7
S'C_MBI1_C4_Ren_a_pt2_Rep_elt_DD_tau_6406_N_34_30'
p731
sg9
F8.0
sg10
g609
sg11
Nsg12
Nsa(dp732
g6
I00
sg7
S'C_MBI1_C4_Ren_a_pt2_Y_Rep_DD_El_tau_N_ 6406_3430'
p733
sg9
I1
sg10
g616
sg11
Nsg12
Nsa(dp734
g6
I00
sg7
S'C_MBI1_C4_Ren_a_pt2_Rep_elt_DD_tau_6406_N_34_31'
p735
sg9
F8.0
sg10
g609
sg11
Nsg12
Nsa(dp736
g6
I00
sg7
S'C_MBI1_C4_Ren_a_pt2_X_Rep_DD_El_tau_N_ 6406_3431'
p737
sg9
I1
sg10
g621
sg11
Nsg12
Nsa(dp738
g6
I00
sg7
S'C_MBI1_C4_Ren_a_pt2_Rep_elt_DD_tau_6406_N_34_32'
p739
sg9
F8.0
sg10
g609
sg11
Nsg12
Nsa(dp740
g6
I00
sg7
S'C_MBI1_C4_Ren_a_pt2_X_Rep_DD_El_tau_N_ 6406_3432'
p741
sg9
I1
sg10
g621
sg11
Nsg12
Nsa(dp742
g6
I00
sg7
S'C_MBI1_C4_Ren_a_pt2_Rep_elt_DD_tau_6406_N_34_33'
p743
sg9
F8.0
sg10
g609
sg11
Nsg12
Nsa(dp744
g6
I00
sg7
S'C_MBI1_C4_Ren_a_pt2_mX_Final_DD_El_tau_N_6406_34'
p745
sg9
I1
sg10
g745
sg11
Nsg12
Nsa(dp746
g6
I00
sg7
S'C_MBI1_C4_Ren_a_pt2_Rep_elt_DD_tau_6406_N_3434'
p747
sg9
F4.0
sg10
g609
sg11
Nsg12
Nsa(dp748
g6
I00
sg7
S'C_MBI1_C4_x_pt2_tau_0_N_0'
p749
sg9
I1
sg10
g749
sg11
Nsg12
Nsa(dp750
g6
I00
sg7
S'C_MBI1_C4_RO_trig_pt2'
p751
sg9
I1
sg10
g751
sg11
g604
sg12
S'phase_gate_Tomo4_Ren_a_24_2_tau_0_N_0'
p752
sa(dp753
g6
I00
sg7
g752
sg9
I1
sg10
g752
sg11
Nsg12
Nsa(dp754
g6
I00
sg7
S'Tomo4_Ren_a_2_X_Initial_DD_El_tau_N_ 6406_34'
p755
sg9
F4.0
sg10
S'Tomo4_Ren_a_2_Rep_elt_DD_tau_6406_N_34'
p756
sg11
Nsg12
Nsa(dp757
g6
I00
sg7
S'Tomo4_Ren_a_2_X_Initial_DD_El_tau_N_ 6406_34_'
p758
sg9
I1
sg10
g755
sg11
Nsg12
Nsa(dp759
g6
I00
sg7
S'Tomo4_Ren_a_2_Rep_elt_DD_tau_6406_N_34_1'
p760
sg9
F8.0
sg10
g756
sg11
Nsg12
Nsa(dp761
g6
I00
sg7
S'Tomo4_Ren_a_2_Y_Rep_DD_El_tau_N_ 6406_341'
p762
sg9
I1
sg10
S'Tomo4_Ren_a_2_Y_Rep_DD_El_tau_N_ 6406_34'
p763
sg11
Nsg12
Nsa(dp764
g6
I00
sg7
S'Tomo4_Ren_a_2_Rep_elt_DD_tau_6406_N_34_2'
p765
sg9
F8.0
sg10
g756
sg11
Nsg12
Nsa(dp766
g6
I00
sg7
S'Tomo4_Ren_a_2_X_Rep_DD_El_tau_N_ 6406_342'
p767
sg9
I1
sg10
S'Tomo4_Ren_a_2_X_Rep_DD_El_tau_N_ 6406_34'
p768
sg11
Nsg12
Nsa(dp769
g6
I00
sg7
S'Tomo4_Ren_a_2_Rep_elt_DD_tau_6406_N_34_3'
p770
sg9
F8.0
sg10
g756
sg11
Nsg12
Nsa(dp771
g6
I00
sg7
S'Tomo4_Ren_a_2_Y_Rep_DD_El_tau_N_ 6406_343'
p772
sg9
I1
sg10
g763
sg11
Nsg12
Nsa(dp773
g6
I00
sg7
S'Tomo4_Ren_a_2_Rep_elt_DD_tau_6406_N_34_4'
p774
sg9
F8.0
sg10
g756
sg11
Nsg12
Nsa(dp775
g6
I00
sg7
S'Tomo4_Ren_a_2_Y_Rep_DD_El_tau_N_ 6406_344'
p776
sg9
I1
sg10
g763
sg11
Nsg12
Nsa(dp777
g6
I00
sg7
S'Tomo4_Ren_a_2_Rep_elt_DD_tau_6406_N_34_5'
p778
sg9
F8.0
sg10
g756
sg11
Nsg12
Nsa(dp779
g6
I00
sg7
S'Tomo4_Ren_a_2_X_Rep_DD_El_tau_N_ 6406_345'
p780
sg9
I1
sg10
g768
sg11
Nsg12
Nsa(dp781
g6
I00
sg7
S'Tomo4_Ren_a_2_Rep_elt_DD_tau_6406_N_34_6'
p782
sg9
F8.0
sg10
g756
sg11
Nsg12
Nsa(dp783
g6
I00
sg7
S'Tomo4_Ren_a_2_Y_Rep_DD_El_tau_N_ 6406_346'
p784
sg9
I1
sg10
g763
sg11
Nsg12
Nsa(dp785
g6
I00
sg7
S'Tomo4_Ren_a_2_Rep_elt_DD_tau_6406_N_34_7'
p786
sg9
F8.0
sg10
g756
sg11
Nsg12
Nsa(dp787
g6
I00
sg7
S'Tomo4_Ren_a_2_X_Rep_DD_El_tau_N_ 6406_347'
p788
sg9
I1
sg10
g768
sg11
Nsg12
Nsa(dp789
g6
I00
sg7
S'Tomo4_Ren_a_2_Rep_elt_DD_tau_6406_N_34_8'
p790
sg9
F8.0
sg10
g756
sg11
Nsg12
Nsa(dp791
g6
I00
sg7
S'Tomo4_Ren_a_2_X_Rep_DD_El_tau_N_ 6406_348'
p792
sg9
I1
sg10
g768
sg11
Nsg12
Nsa(dp793
g6
I00
sg7
S'Tomo4_Ren_a_2_Rep_elt_DD_tau_6406_N_34_9'
p794
sg9
F8.0
sg10
g756
sg11
Nsg12
Nsa(dp795
g6
I00
sg7
S'Tomo4_Ren_a_2_Y_Rep_DD_El_tau_N_ 6406_349'
p796
sg9
I1
sg10
g763
sg11
Nsg12
Nsa(dp797
g6
I00
sg7
S'Tomo4_Ren_a_2_Rep_elt_DD_tau_6406_N_34_10'
p798
sg9
F8.0
sg10
g756
sg11
Nsg12
Nsa(dp799
g6
I00
sg7
S'Tomo4_Ren_a_2_X_Rep_DD_El_tau_N_ 6406_3410'
p800
sg9
I1
sg10
g768
sg11
Nsg12
Nsa(dp801
g6
I00
sg7
S'Tomo4_Ren_a_2_Rep_elt_DD_tau_6406_N_34_11'
p802
sg9
F8.0
sg10
g756
sg11
Nsg12
Nsa(dp803
g6
I00
sg7
S'Tomo4_Ren_a_2_Y_Rep_DD_El_tau_N_ 6406_3411'
p804
sg9
I1
sg10
g763
sg11
Nsg12
Nsa(dp805
g6
I00
sg7
S'Tomo4_Ren_a_2_Rep_elt_DD_tau_6406_N_34_12'
p806
sg9
F8.0
sg10
g756
sg11
Nsg12
Nsa(dp807
g6
I00
sg7
S'Tomo4_Ren_a_2_Y_Rep_DD_El_tau_N_ 6406_3412'
p808
sg9
I1
sg10
g763
sg11
Nsg12
Nsa(dp809
g6
I00
sg7
S'Tomo4_Ren_a_2_Rep_elt_DD_tau_6406_N_34_13'
p810
sg9
F8.0
sg10
g756
sg11
Nsg12
Nsa(dp811
g6
I00
sg7
S'Tomo4_Ren_a_2_X_Rep_DD_El_tau_N_ 6406_3413'
p812
sg9
I1
sg10
g768
sg11
Nsg12
Nsa(dp813
g6
I00
sg7
S'Tomo4_Ren_a_2_Rep_elt_DD_tau_6406_N_34_14'
p814
sg9
F8.0
sg10
g756
sg11
Nsg12
Nsa(dp815
g6
I00
sg7
S'Tomo4_Ren_a_2_Y_Rep_DD_El_tau_N_ 6406_3414'
p816
sg9
I1
sg10
g763
sg11
Nsg12
Nsa(dp817
g6
I00
sg7
S'Tomo4_Ren_a_2_Rep_elt_DD_tau_6406_N_34_15'
p818
sg9
F8.0
sg10
g756
sg11
Nsg12
Nsa(dp819
g6
I00
sg7
S'Tomo4_Ren_a_2_X_Rep_DD_El_tau_N_ 6406_3415'
p820
sg9
I1
sg10
g768
sg11
Nsg12
Nsa(dp821
g6
I00
sg7
S'Tomo4_Ren_a_2_Rep_elt_DD_tau_6406_N_34_16'
p822
sg9
F8.0
sg10
g756
sg11
Nsg12
Nsa(dp823
g6
I00
sg7
S'Tomo4_Ren_a_2_X_Rep_DD_El_tau_N_ 6406_3416'
p824
sg9
I1
sg10
g768
sg11
Nsg12
Nsa(dp825
g6
I00
sg7
S'Tomo4_Ren_a_2_Rep_elt_DD_tau_6406_N_34_17'
p826
sg9
F8.0
sg10
g756
sg11
Nsg12
Nsa(dp827
g6
I00
sg7
S'Tomo4_Ren_a_2_Y_Rep_DD_El_tau_N_ 6406_3417'
p828
sg9
I1
sg10
g763
sg11
Nsg12
Nsa(dp829
g6
I00
sg7
S'Tomo4_Ren_a_2_Rep_elt_DD_tau_6406_N_34_18'
p830
sg9
F8.0
sg10
g756
sg11
Nsg12
Nsa(dp831
g6
I00
sg7
S'Tomo4_Ren_a_2_X_Rep_DD_El_tau_N_ 6406_3418'
p832
sg9
I1
sg10
g768
sg11
Nsg12
Nsa(dp833
g6
I00
sg7
S'Tomo4_Ren_a_2_Rep_elt_DD_tau_6406_N_34_19'
p834
sg9
F8.0
sg10
g756
sg11
Nsg12
Nsa(dp835
g6
I00
sg7
S'Tomo4_Ren_a_2_Y_Rep_DD_El_tau_N_ 6406_3419'
p836
sg9
I1
sg10
g763
sg11
Nsg12
Nsa(dp837
g6
I00
sg7
S'Tomo4_Ren_a_2_Rep_elt_DD_tau_6406_N_34_20'
p838
sg9
F8.0
sg10
g756
sg11
Nsg12
Nsa(dp839
g6
I00
sg7
S'Tomo4_Ren_a_2_Y_Rep_DD_El_tau_N_ 6406_3420'
p840
sg9
I1
sg10
g763
sg11
Nsg12
Nsa(dp841
g6
I00
sg7
S'Tomo4_Ren_a_2_Rep_elt_DD_tau_6406_N_34_21'
p842
sg9
F8.0
sg10
g756
sg11
Nsg12
Nsa(dp843
g6
I00
sg7
S'Tomo4_Ren_a_2_X_Rep_DD_El_tau_N_ 6406_3421'
p844
sg9
I1
sg10
g768
sg11
Nsg12
Nsa(dp845
g6
I00
sg7
S'Tomo4_Ren_a_2_Rep_elt_DD_tau_6406_N_34_22'
p846
sg9
F8.0
sg10
g756
sg11
Nsg12
Nsa(dp847
g6
I00
sg7
S'Tomo4_Ren_a_2_Y_Rep_DD_El_tau_N_ 6406_3422'
p848
sg9
I1
sg10
g763
sg11
Nsg12
Nsa(dp849
g6
I00
sg7
S'Tomo4_Ren_a_2_Rep_elt_DD_tau_6406_N_34_23'
p850
sg9
F8.0
sg10
g756
sg11
Nsg12
Nsa(dp851
g6
I00
sg7
S'Tomo4_Ren_a_2_X_Rep_DD_El_tau_N_ 6406_3423'
p852
sg9
I1
sg10
g768
sg11
Nsg12
Nsa(dp853
g6
I00
sg7
S'Tomo4_Ren_a_2_Rep_elt_DD_tau_6406_N_34_24'
p854
sg9
F8.0
sg10
g756
sg11
Nsg12
Nsa(dp855
g6
I00
sg7
S'Tomo4_Ren_a_2_X_Rep_DD_El_tau_N_ 6406_3424'
p856
sg9
I1
sg10
g768
sg11
Nsg12
Nsa(dp857
g6
I00
sg7
S'Tomo4_Ren_a_2_Rep_elt_DD_tau_6406_N_34_25'
p858
sg9
F8.0
sg10
g756
sg11
Nsg12
Nsa(dp859
g6
I00
sg7
S'Tomo4_Ren_a_2_Y_Rep_DD_El_tau_N_ 6406_3425'
p860
sg9
I1
sg10
g763
sg11
Nsg12
Nsa(dp861
g6
I00
sg7
S'Tomo4_Ren_a_2_Rep_elt_DD_tau_6406_N_34_26'
p862
sg9
F8.0
sg10
g756
sg11
Nsg12
Nsa(dp863
g6
I00
sg7
S'Tomo4_Ren_a_2_X_Rep_DD_El_tau_N_ 6406_3426'
p864
sg9
I1
sg10
g768
sg11
Nsg12
Nsa(dp865
g6
I00
sg7
S'Tomo4_Ren_a_2_Rep_elt_DD_tau_6406_N_34_27'
p866
sg9
F8.0
sg10
g756
sg11
Nsg12
Nsa(dp867
g6
I00
sg7
S'Tomo4_Ren_a_2_Y_Rep_DD_El_tau_N_ 6406_3427'
p868
sg9
I1
sg10
g763
sg11
Nsg12
Nsa(dp869
g6
I00
sg7
S'Tomo4_Ren_a_2_Rep_elt_DD_tau_6406_N_34_28'
p870
sg9
F8.0
sg10
g756
sg11
Nsg12
Nsa(dp871
g6
I00
sg7
S'Tomo4_Ren_a_2_Y_Rep_DD_El_tau_N_ 6406_3428'
p872
sg9
I1
sg10
g763
sg11
Nsg12
Nsa(dp873
g6
I00
sg7
S'Tomo4_Ren_a_2_Rep_elt_DD_tau_6406_N_34_29'
p874
sg9
F8.0
sg10
g756
sg11
Nsg12
Nsa(dp875
g6
I00
sg7
S'Tomo4_Ren_a_2_X_Rep_DD_El_tau_N_ 6406_3429'
p876
sg9
I1
sg10
g768
sg11
Nsg12
Nsa(dp877
g6
I00
sg7
S'Tomo4_Ren_a_2_Rep_elt_DD_tau_6406_N_34_30'
p878
sg9
F8.0
sg10
g756
sg11
Nsg12
Nsa(dp879
g6
I00
sg7
S'Tomo4_Ren_a_2_Y_Rep_DD_El_tau_N_ 6406_3430'
p880
sg9
I1
sg10
g763
sg11
Nsg12
Nsa(dp881
g6
I00
sg7
S'Tomo4_Ren_a_2_Rep_elt_DD_tau_6406_N_34_31'
p882
sg9
F8.0
sg10
g756
sg11
Nsg12
Nsa(dp883
g6
I00
sg7
S'Tomo4_Ren_a_2_X_Rep_DD_El_tau_N_ 6406_3431'
p884
sg9
I1
sg10
g768
sg11
Nsg12
Nsa(dp885
g6
I00
sg7
S'Tomo4_Ren_a_2_Rep_elt_DD_tau_6406_N_34_32'
p886
sg9
F8.0
sg10
g756
sg11
Nsg12
Nsa(dp887
g6
I00
sg7
S'Tomo4_Ren_a_2_X_Rep_DD_El_tau_N_ 6406_3432'
p888
sg9
I1
sg10
g768
sg11
Nsg12
Nsa(dp889
g6
I00
sg7
S'Tomo4_Ren_a_2_Rep_elt_DD_tau_6406_N_34_33'
p890
sg9
F8.0
sg10
g756
sg11
Nsg12
Nsa(dp891
g6
I00
sg7
S'Tomo4_Ren_a_2_mX_Final_DD_El_tau_N_6406_34'
p892
sg9
I1
sg10
g892
sg11
Nsg12
Nsa(dp893
g6
I00
sg7
S'Tomo4_Ren_a_2_Rep_elt_DD_tau_6406_N_3434'
p894
sg9
F4.0
sg10
g756
sg11
Nsg12
Nsa(dp895
g6
I00
sg7
S'Tomo_y_pi2_init2_tau_0_N_0'
p896
sg9
I1
sg10
g896
sg11
Nsg12
Nsa(dp897
g6
I00
sg7
S'Tomo4_Ren_b_2_X_Initial_DD_El_tau_N_ 6406_34'
p898
sg9
F4.0
sg10
S'Tomo4_Ren_b_2_Rep_elt_DD_tau_6406_N_34'
p899
sg11
Nsg12
Nsa(dp900
g6
I00
sg7
S'Tomo4_Ren_b_2_X_Initial_DD_El_tau_N_ 6406_34_'
p901
sg9
I1
sg10
g898
sg11
Nsg12
Nsa(dp902
g6
I00
sg7
S'Tomo4_Ren_b_2_Rep_elt_DD_tau_6406_N_34_1'
p903
sg9
F8.0
sg10
g899
sg11
Nsg12
Nsa(dp904
g6
I00
sg7
S'Tomo4_Ren_b_2_Y_Rep_DD_El_tau_N_ 6406_341'
p905
sg9
I1
sg10
S'Tomo4_Ren_b_2_Y_Rep_DD_El_tau_N_ 6406_34'
p906
sg11
Nsg12
Nsa(dp907
g6
I00
sg7
S'Tomo4_Ren_b_2_Rep_elt_DD_tau_6406_N_34_2'
p908
sg9
F8.0
sg10
g899
sg11
Nsg12
Nsa(dp909
g6
I00
sg7
S'Tomo4_Ren_b_2_X_Rep_DD_El_tau_N_ 6406_342'
p910
sg9
I1
sg10
S'Tomo4_Ren_b_2_X_Rep_DD_El_tau_N_ 6406_34'
p911
sg11
Nsg12
Nsa(dp912
g6
I00
sg7
S'Tomo4_Ren_b_2_Rep_elt_DD_tau_6406_N_34_3'
p913
sg9
F8.0
sg10
g899
sg11
Nsg12
Nsa(dp914
g6
I00
sg7
S'Tomo4_Ren_b_2_Y_Rep_DD_El_tau_N_ 6406_343'
p915
sg9
I1
sg10
g906
sg11
Nsg12
Nsa(dp916
g6
I00
sg7
S'Tomo4_Ren_b_2_Rep_elt_DD_tau_6406_N_34_4'
p917
sg9
F8.0
sg10
g899
sg11
Nsg12
Nsa(dp918
g6
I00
sg7
S'Tomo4_Ren_b_2_Y_Rep_DD_El_tau_N_ 6406_344'
p919
sg9
I1
sg10
g906
sg11
Nsg12
Nsa(dp920
g6
I00
sg7
S'Tomo4_Ren_b_2_Rep_elt_DD_tau_6406_N_34_5'
p921
sg9
F8.0
sg10
g899
sg11
Nsg12
Nsa(dp922
g6
I00
sg7
S'Tomo4_Ren_b_2_X_Rep_DD_El_tau_N_ 6406_345'
p923
sg9
I1
sg10
g911
sg11
Nsg12
Nsa(dp924
g6
I00
sg7
S'Tomo4_Ren_b_2_Rep_elt_DD_tau_6406_N_34_6'
p925
sg9
F8.0
sg10
g899
sg11
Nsg12
Nsa(dp926
g6
I00
sg7
S'Tomo4_Ren_b_2_Y_Rep_DD_El_tau_N_ 6406_346'
p927
sg9
I1
sg10
g906
sg11
Nsg12
Nsa(dp928
g6
I00
sg7
S'Tomo4_Ren_b_2_Rep_elt_DD_tau_6406_N_34_7'
p929
sg9
F8.0
sg10
g899
sg11
Nsg12
Nsa(dp930
g6
I00
sg7
S'Tomo4_Ren_b_2_X_Rep_DD_El_tau_N_ 6406_347'
p931
sg9
I1
sg10
g911
sg11
Nsg12
Nsa(dp932
g6
I00
sg7
S'Tomo4_Ren_b_2_Rep_elt_DD_tau_6406_N_34_8'
p933
sg9
F8.0
sg10
g899
sg11
Nsg12
Nsa(dp934
g6
I00
sg7
S'Tomo4_Ren_b_2_X_Rep_DD_El_tau_N_ 6406_348'
p935
sg9
I1
sg10
g911
sg11
Nsg12
Nsa(dp936
g6
I00
sg7
S'Tomo4_Ren_b_2_Rep_elt_DD_tau_6406_N_34_9'
p937
sg9
F8.0
sg10
g899
sg11
Nsg12
Nsa(dp938
g6
I00
sg7
S'Tomo4_Ren_b_2_Y_Rep_DD_El_tau_N_ 6406_349'
p939
sg9
I1
sg10
g906
sg11
Nsg12
Nsa(dp940
g6
I00
sg7
S'Tomo4_Ren_b_2_Rep_elt_DD_tau_6406_N_34_10'
p941
sg9
F8.0
sg10
g899
sg11
Nsg12
Nsa(dp942
g6
I00
sg7
S'Tomo4_Ren_b_2_X_Rep_DD_El_tau_N_ 6406_3410'
p943
sg9
I1
sg10
g911
sg11
Nsg12
Nsa(dp944
g6
I00
sg7
S'Tomo4_Ren_b_2_Rep_elt_DD_tau_6406_N_34_11'
p945
sg9
F8.0
sg10
g899
sg11
Nsg12
Nsa(dp946
g6
I00
sg7
S'Tomo4_Ren_b_2_Y_Rep_DD_El_tau_N_ 6406_3411'
p947
sg9
I1
sg10
g906
sg11
Nsg12
Nsa(dp948
g6
I00
sg7
S'Tomo4_Ren_b_2_Rep_elt_DD_tau_6406_N_34_12'
p949
sg9
F8.0
sg10
g899
sg11
Nsg12
Nsa(dp950
g6
I00
sg7
S'Tomo4_Ren_b_2_Y_Rep_DD_El_tau_N_ 6406_3412'
p951
sg9
I1
sg10
g906
sg11
Nsg12
Nsa(dp952
g6
I00
sg7
S'Tomo4_Ren_b_2_Rep_elt_DD_tau_6406_N_34_13'
p953
sg9
F8.0
sg10
g899
sg11
Nsg12
Nsa(dp954
g6
I00
sg7
S'Tomo4_Ren_b_2_X_Rep_DD_El_tau_N_ 6406_3413'
p955
sg9
I1
sg10
g911
sg11
Nsg12
Nsa(dp956
g6
I00
sg7
S'Tomo4_Ren_b_2_Rep_elt_DD_tau_6406_N_34_14'
p957
sg9
F8.0
sg10
g899
sg11
Nsg12
Nsa(dp958
g6
I00
sg7
S'Tomo4_Ren_b_2_Y_Rep_DD_El_tau_N_ 6406_3414'
p959
sg9
I1
sg10
g906
sg11
Nsg12
Nsa(dp960
g6
I00
sg7
S'Tomo4_Ren_b_2_Rep_elt_DD_tau_6406_N_34_15'
p961
sg9
F8.0
sg10
g899
sg11
Nsg12
Nsa(dp962
g6
I00
sg7
S'Tomo4_Ren_b_2_X_Rep_DD_El_tau_N_ 6406_3415'
p963
sg9
I1
sg10
g911
sg11
Nsg12
Nsa(dp964
g6
I00
sg7
S'Tomo4_Ren_b_2_Rep_elt_DD_tau_6406_N_34_16'
p965
sg9
F8.0
sg10
g899
sg11
Nsg12
Nsa(dp966
g6
I00
sg7
S'Tomo4_Ren_b_2_X_Rep_DD_El_tau_N_ 6406_3416'
p967
sg9
I1
sg10
g911
sg11
Nsg12
Nsa(dp968
g6
I00
sg7
S'Tomo4_Ren_b_2_Rep_elt_DD_tau_6406_N_34_17'
p969
sg9
F8.0
sg10
g899
sg11
Nsg12
Nsa(dp970
g6
I00
sg7
S'Tomo4_Ren_b_2_Y_Rep_DD_El_tau_N_ 6406_3417'
p971
sg9
I1
sg10
g906
sg11
Nsg12
Nsa(dp972
g6
I00
sg7
S'Tomo4_Ren_b_2_Rep_elt_DD_tau_6406_N_34_18'
p973
sg9
F8.0
sg10
g899
sg11
Nsg12
Nsa(dp974
g6
I00
sg7
S'Tomo4_Ren_b_2_X_Rep_DD_El_tau_N_ 6406_3418'
p975
sg9
I1
sg10
g911
sg11
Nsg12
Nsa(dp976
g6
I00
sg7
S'Tomo4_Ren_b_2_Rep_elt_DD_tau_6406_N_34_19'
p977
sg9
F8.0
sg10
g899
sg11
Nsg12
Nsa(dp978
g6
I00
sg7
S'Tomo4_Ren_b_2_Y_Rep_DD_El_tau_N_ 6406_3419'
p979
sg9
I1
sg10
g906
sg11
Nsg12
Nsa(dp980
g6
I00
sg7
S'Tomo4_Ren_b_2_Rep_elt_DD_tau_6406_N_34_20'
p981
sg9
F8.0
sg10
g899
sg11
Nsg12
Nsa(dp982
g6
I00
sg7
S'Tomo4_Ren_b_2_Y_Rep_DD_El_tau_N_ 6406_3420'
p983
sg9
I1
sg10
g906
sg11
Nsg12
Nsa(dp984
g6
I00
sg7
S'Tomo4_Ren_b_2_Rep_elt_DD_tau_6406_N_34_21'
p985
sg9
F8.0
sg10
g899
sg11
Nsg12
Nsa(dp986
g6
I00
sg7
S'Tomo4_Ren_b_2_X_Rep_DD_El_tau_N_ 6406_3421'
p987
sg9
I1
sg10
g911
sg11
Nsg12
Nsa(dp988
g6
I00
sg7
S'Tomo4_Ren_b_2_Rep_elt_DD_tau_6406_N_34_22'
p989
sg9
F8.0
sg10
g899
sg11
Nsg12
Nsa(dp990
g6
I00
sg7
S'Tomo4_Ren_b_2_Y_Rep_DD_El_tau_N_ 6406_3422'
p991
sg9
I1
sg10
g906
sg11
Nsg12
Nsa(dp992
g6
I00
sg7
S'Tomo4_Ren_b_2_Rep_elt_DD_tau_6406_N_34_23'
p993
sg9
F8.0
sg10
g899
sg11
Nsg12
Nsa(dp994
g6
I00
sg7
S'Tomo4_Ren_b_2_X_Rep_DD_El_tau_N_ 6406_3423'
p995
sg9
I1
sg10
g911
sg11
Nsg12
Nsa(dp996
g6
I00
sg7
S'Tomo4_Ren_b_2_Rep_elt_DD_tau_6406_N_34_24'
p997
sg9
F8.0
sg10
g899
sg11
Nsg12
Nsa(dp998
g6
I00
sg7
S'Tomo4_Ren_b_2_X_Rep_DD_El_tau_N_ 6406_3424'
p999
sg9
I1
sg10
g911
sg11
Nsg12
Nsa(dp1000
g6
I00
sg7
S'Tomo4_Ren_b_2_Rep_elt_DD_tau_6406_N_34_25'
p1001
sg9
F8.0
sg10
g899
sg11
Nsg12
Nsa(dp1002
g6
I00
sg7
S'Tomo4_Ren_b_2_Y_Rep_DD_El_tau_N_ 6406_3425'
p1003
sg9
I1
sg10
g906
sg11
Nsg12
Nsa(dp1004
g6
I00
sg7
S'Tomo4_Ren_b_2_Rep_elt_DD_tau_6406_N_34_26'
p1005
sg9
F8.0
sg10
g899
sg11
Nsg12
Nsa(dp1006
g6
I00
sg7
S'Tomo4_Ren_b_2_X_Rep_DD_El_tau_N_ 6406_3426'
p1007
sg9
I1
sg10
g911
sg11
Nsg12
Nsa(dp1008
g6
I00
sg7
S'Tomo4_Ren_b_2_Rep_elt_DD_tau_6406_N_34_27'
p1009
sg9
F8.0
sg10
g899
sg11
Nsg12
Nsa(dp1010
g6
I00
sg7
S'Tomo4_Ren_b_2_Y_Rep_DD_El_tau_N_ 6406_3427'
p1011
sg9
I1
sg10
g906
sg11
Nsg12
Nsa(dp1012
g6
I00
sg7
S'Tomo4_Ren_b_2_Rep_elt_DD_tau_6406_N_34_28'
p1013
sg9
F8.0
sg10
g899
sg11
Nsg12
Nsa(dp1014
g6
I00
sg7
S'Tomo4_Ren_b_2_Y_Rep_DD_El_tau_N_ 6406_3428'
p1015
sg9
I1
sg10
g906
sg11
Nsg12
Nsa(dp1016
g6
I00
sg7
S'Tomo4_Ren_b_2_Rep_elt_DD_tau_6406_N_34_29'
p1017
sg9
F8.0
sg10
g899
sg11
Nsg12
Nsa(dp1018
g6
I00
sg7
S'Tomo4_Ren_b_2_X_Rep_DD_El_tau_N_ 6406_3429'
p1019
sg9
I1
sg10
g911
sg11
Nsg12
Nsa(dp1020
g6
I00
sg7
S'Tomo4_Ren_b_2_Rep_elt_DD_tau_6406_N_34_30'
p1021
sg9
F8.0
sg10
g899
sg11
Nsg12
Nsa(dp1022
g6
I00
sg7
S'Tomo4_Ren_b_2_Y_Rep_DD_El_tau_N_ 6406_3430'
p1023
sg9
I1
sg10
g906
sg11
Nsg12
Nsa(dp1024
g6
I00
sg7
S'Tomo4_Ren_b_2_Rep_elt_DD_tau_6406_N_34_31'
p1025
sg9
F8.0
sg10
g899
sg11
Nsg12
Nsa(dp1026
g6
I00
sg7
S'Tomo4_Ren_b_2_X_Rep_DD_El_tau_N_ 6406_3431'
p1027
sg9
I1
sg10
g911
sg11
Nsg12
Nsa(dp1028
g6
I00
sg7
S'Tomo4_Ren_b_2_Rep_elt_DD_tau_6406_N_34_32'
p1029
sg9
F8.0
sg10
g899
sg11
Nsg12
Nsa(dp1030
g6
I00
sg7
S'Tomo4_Ren_b_2_X_Rep_DD_El_tau_N_ 6406_3432'
p1031
sg9
I1
sg10
g911
sg11
Nsg12
Nsa(dp1032
g6
I00
sg7
S'Tomo4_Ren_b_2_Rep_elt_DD_tau_6406_N_34_33'
p1033
sg9
F8.0
sg10
g899
sg11
Nsg12
Nsa(dp1034
g6
I00
sg7
S'Tomo4_Ren_b_2_mX_Final_DD_El_tau_N_6406_34'
p1035
sg9
I1
sg10
g1035
sg11
Nsg12
Nsa(dp1036
g6
I00
sg7
S'Tomo4_Ren_b_2_Rep_elt_DD_tau_6406_N_3434'
p1037
sg9
F4.0
sg10
g899
sg11
Nsg12
Nsa(dp1038
g6
I00
sg7
S'Tomo_pi2_final_phase=90_2_tau_0_N_0'
p1039
sg9
I1
sg10
g1039
sg11
Nsg12
Nsa(dp1040
g6
I00
sg7
S'Tomo_Trigger_2'
p1041
sg9
I1
sg10
g1041
sg11
Nsg12
Nsasg7
S'Two Qubit MBE'
p1042
sS'djump_table'
p1043
Nsba((imeasurement.lib.pulsar.element
Element
p1044
(dp1045
S'global_time'
p1046
I00
sg7
g8
sS'_channels'
p1047
(dp1048
S'MW_pulsemod'
p1049
(dp1050
S'delay'
p1051
F2.56e-07
sS'high'
p1052
F2.0
sS'type'
p1053
S'marker'
p1054
sS'low'
p1055
I0
sS'offset'
p1056
F0.0
ssS'MW_Imod'
p1057
(dp1058
g1051
F2e-07
sg1052
F1.0
sg1053
S'analog'
p1059
sg1055
F-1.0
sg1056
F0.0
ssS'adwin_count'
p1060
(dp1061
g1051
F0.0
sg1052
F2.0
sg1053
g1054
sg1055
I0
sg1056
F0.0
ssS'EOM_AOM_Matisse'
p1062
(dp1063
g1051
F4.949999999999999e-07
sg1052
F1.0
sg1053
g1059
sg1055
F-1.0
sg1056
F0.01
ssS'sync'
p1064
(dp1065
g1051
F1.02e-07
sg1052
F2.0
sg1053
g1054
sg1055
I0
sg1056
F0.0
ssS'MW_Qmod'
p1066
(dp1067
g1051
F2e-07
sg1052
F1.0
sg1053
g1059
sg1055
F-1.0
sg1056
F0.0
ssS'plu_sync'
p1068
(dp1069
g1051
F1.82e-07
sg1052
F2.0
sg1053
g1054
sg1055
I0
sg1056
I0
ssS'AOM_Newfocus'
p1070
(dp1071
g1051
F2e-07
sg1052
F0.5
sg1053
g1054
sg1055
F0.0
sg1056
F0.0
ssS'EOM_Matisse'
p1072
(dp1073
g1051
F2.79e-07
sg1052
F2.0
sg1053
g1059
sg1055
F-2.0
sg1056
F0.0
ssS'adwin_sync'
p1074
(dp1075
g1051
F0.0
sg1052
F2.0
sg1053
g1054
sg1055
F0.0
sg1056
F0.0
ssS'AOM_Matisse'
p1076
(dp1077
g1051
F2e-07
sg1052
F0.5
sg1053
g1054
sg1055
F0.0
sg1056
F0.0
sssS'clock'
p1078
F1000000000.0
sS'_last_added_pulse'
p1079
S'square pulse-1'
p1080
sS'pulses'
p1081
(dp1082
S'MBI MW pulse-0'
p1083
(imeasurement.lib.pulsar.pulselib
MW_IQmod_pulse
p1084
(dp1085
S'_clock'
p1086
NsS'stop_offset'
p1087
F5e-07
sS'_t0'
p1088
F-4e-07
sS'phaselock'
p1089
I01
sS'risetime'
p1090
F5e-07
sS'start_offset'
p1091
F5e-07
sS'channels'
p1092
(lp1093
g1057
ag1066
ag1049
asS'frequency'
p1094
I0
sS'Q_channel'
p1095
g1066
sS'PM_risetime'
p1096
F1e-08
sS'phase'
p1097
F0.0
sg7
S'MBI MW pulse'
p1098
sS'I_channel'
p1099
g1057
sS'Sw_risetime'
p1100
F5e-07
sS'length'
p1101
F3e-06
sS'amplitude'
p1102
F0.0
sS'PM_channel'
p1103
g1049
sbsg1080
(imeasurement.lib.pulsar.pulse
SquarePulse
p1104
(dp1105
g1086
Nsg7
S'square pulse'
p1106
sg1088
F2.1000000000000002e-06
sg1091
I0
sg1092
(lp1107
g1074
asg1101
F2.7000000000000002e-05
sg1102
I2
sS'channel'
p1108
g1074
sg1087
I0
sbsS'square pulse-0'
p1109
(imeasurement.lib.pulsar.pulse
SquarePulse
p1110
(dp1111
g1086
Nsg7
g1106
sg1088
I0
sg1091
I0
sg1092
(lp1112
g1049
asg1101
F1e-07
sg1102
I0
sg1108
g1049
sg1087
I0
sbssS'granularity'
p1113
I4
sS'ignore_delays'
p1114
I00
sS'pulsar'
p1115
(imeasurement.lib.pulsar.pulsar
Pulsar
p1116
(dp1117
g1092
(dp1118
g1049
(dp1119
g1051
F2.56e-07
sg1052
F2.0
sg1055
I0
sg1056
F0.0
sS'active'
p1120
I01
sS'skew'
p1121
I0
sg1053
g1054
sS'id'
p1122
S'ch1_marker1'
p1123
ssg1057
(dp1124
g1051
F2e-07
sg1052
F1.0
sg1055
F-1.0
sg1056
F0.0
sg1120
I01
sg1121
I0
sg1053
g1059
sg1122
S'ch1'
p1125
ssg1060
(dp1126
g1051
F0.0
sg1052
F2.0
sg1055
I0
sg1056
F0.0
sg1120
I01
sg1121
I0
sg1053
g1054
sg1122
S'ch3_marker2'
p1127
ssg1062
(dp1128
g1051
F4.949999999999999e-07
sg1052
F1.0
sg1055
F-1.0
sg1056
F0.01
sg1120
I01
sg1121
I0
sg1053
g1059
sg1122
S'ch3'
p1129
ssg1064
(dp1130
g1051
F1.02e-07
sg1052
F2.0
sg1055
I0
sg1056
F0.0
sg1120
I01
sg1121
I0
sg1053
g1054
sg1122
S'ch1_marker2'
p1131
ssg1066
(dp1132
g1051
F2e-07
sg1052
F1.0
sg1055
F-1.0
sg1056
F0.0
sg1120
I01
sg1121
I0
sg1053
g1059
sg1122
S'ch2'
p1133
ssg1068
(dp1134
g1051
F1.82e-07
sg1052
F2.0
sg1055
I0
sg1056
I0
sg1120
I01
sg1121
I0
sg1053
g1054
sg1122
S'ch2_marker1'
p1135
ssg1070
(dp1136
g1051
F2e-07
sg1052
F0.5
sg1055
F0.0
sg1056
F0.0
sg1120
I01
sg1121
I0
sg1053
g1054
sg1122
S'ch4_marker1'
p1137
ssg1072
(dp1138
g1051
F2.79e-07
sg1052
F2.0
sg1055
F-2.0
sg1056
F0.0
sg1120
I01
sg1121
I0
sg1053
g1059
sg1122
S'ch4'
p1139
ssg1074
(dp1140
g1051
F0.0
sg1052
F2.0
sg1055
F0.0
sg1056
F0.0
sg1120
I01
sg1121
I0
sg1053
g1054
sg1122
S'ch3_marker1'
p1141
ssg1076
(dp1142
g1051
F2e-07
sg1052
F0.5
sg1055
F0.0
sg1056
F0.0
sg1120
I01
sg1121
I0
sg1053
g1054
sg1122
S'ch4_marker2'
p1143
sssS'AWG_sequence_cfg'
p1144
(dp1145
S'TRIGGER_INPUT_SLOPE'
p1146
I1
sS'EVENT_INPUT_POLARITY'
p1147
I1
sS'EVENT_INPUT_IMPEDANCE'
p1148
I1
sS'JUMP_TIMING'
p1149
I1
sS'TRIGGER_INPUT_THRESHOLD'
p1150
F1.0
sS'TRIGGER_INPUT_IMPEDANCE'
p1151
I1
sS'RUN_MODE'
p1152
I4
sS'TRIGGER_INPUT_POLARITY'
p1153
I1
sS'EVENT_INPUT_THRESHOLD'
p1154
F0.8
sS'TRIGGER_SOURCE'
p1155
I1
sS'RUN_STATE'
p1156
I0
sS'SAMPLING_RATE'
p1157
F1000000000.0
ssS'AWG_type'
p1158
S'opt09'
p1159
sg1078
F1000000000.0
sbsS'min_samples'
p1160
I960
sS'time_offset'
p1161
I0
sb(imeasurement.lib.pulsar.element
Element
p1162
(dp1163
g1046
I01
sg7
g13
sg1047
(dp1164
g1049
(dp1165
g1051
F2.56e-07
sg1052
F2.0
sg1053
g1054
sg1055
I0
sg1056
F0.0
ssg1057
(dp1166
g1051
F2e-07
sg1052
F1.0
sg1053
g1059
sg1055
F-1.0
sg1056
F0.0
ssg1060
(dp1167
g1051
F0.0
sg1052
F2.0
sg1053
g1054
sg1055
I0
sg1056
F0.0
ssg1062
(dp1168
g1051
F4.949999999999999e-07
sg1052
F1.0
sg1053
g1059
sg1055
F-1.0
sg1056
F0.01
ssg1064
(dp1169
g1051
F1.02e-07
sg1052
F2.0
sg1053
g1054
sg1055
I0
sg1056
F0.0
ssg1066
(dp1170
g1051
F2e-07
sg1052
F1.0
sg1053
g1059
sg1055
F-1.0
sg1056
F0.0
ssg1068
(dp1171
g1051
F1.82e-07
sg1052
F2.0
sg1053
g1054
sg1055
I0
sg1056
I0
ssg1070
(dp1172
g1051
F2e-07
sg1052
F0.5
sg1053
g1054
sg1055
F0.0
sg1056
F0.0
ssg1072
(dp1173
g1051
F2.79e-07
sg1052
F2.0
sg1053
g1059
sg1055
F-2.0
sg1056
F0.0
ssg1074
(dp1174
g1051
F0.0
sg1052
F2.0
sg1053
g1054
sg1055
F0.0
sg1056
F0.0
ssg1076
(dp1175
g1051
F2e-07
sg1052
F0.5
sg1053
g1054
sg1055
F0.0
sg1056
F0.0
sssg1078
F1000000000.0
sg1079
S'wait fin T-0'
p1176
sg1081
(dp1177
S'wait in T-0'
p1178
(imeasurement.lib.pulsar.pulse
SquarePulse
p1179
(dp1180
g1086
Nsg7
S'wait in T'
p1181
sg1088
I0
sg1091
I0
sg1092
(lp1182
g1057
asg1101
F9.75e-07
sg1102
F0.0
sg1108
g1057
sg1087
I0
sbsS'Hermite Pi/2-pulse-0'
p1183
(imeasurement.lib.pulsar.pulselib
HermitePulse_Envelope_IQ
p1184
(dp1185
g1086
Nsg1087
F5e-07
sg1088
F4.75e-07
sg1089
I01
sg1090
F5e-07
sg1091
F5e-07
sg1092
(lp1186
g1057
ag1066
ag1049
asg1094
I0
sg1095
g1066
sg1096
F1e-08
sg1097
I0
sg1100
F5e-07
sg7
S'Hermite Pi/2-pulse'
p1187
sS'pi2_pulse'
p1188
I01
sS'T_herm'
p1189
F8.33499999999999e-09
sg1099
g1057
sg1101
F1.05e-06
sS'mu'
p1190
F5.25e-07
sS'env_amplitude'
p1191
F0.56
sg1102
F1.0
sg1103
g1049
sbsg1176
(imeasurement.lib.pulsar.pulse
SquarePulse
p1192
(dp1193
g1086
Nsg7
S'wait fin T'
p1194
sg1088
F1.025e-06
sg1091
I0
sg1092
(lp1195
g1057
asg1101
F9.75e-07
sg1102
F0.0
sg1108
g1057
sg1087
I0
sbssg1113
I4
sg1114
I00
sg1115
g1116
sg1160
I960
sg1161
I0
sb(imeasurement.lib.pulsar.element
Element
p1196
(dp1197
g1046
I01
sg7
g16
sg1047
(dp1198
g1049
(dp1199
g1051
F2.56e-07
sg1052
F2.0
sg1053
g1054
sg1055
I0
sg1056
F0.0
ssg1057
(dp1200
g1051
F2e-07
sg1052
F1.0
sg1053
g1059
sg1055
F-1.0
sg1056
F0.0
ssg1060
(dp1201
g1051
F0.0
sg1052
F2.0
sg1053
g1054
sg1055
I0
sg1056
F0.0
ssg1062
(dp1202
g1051
F4.949999999999999e-07
sg1052
F1.0
sg1053
g1059
sg1055
F-1.0
sg1056
F0.01
ssg1064
(dp1203
g1051
F1.02e-07
sg1052
F2.0
sg1053
g1054
sg1055
I0
sg1056
F0.0
ssg1066
(dp1204
g1051
F2e-07
sg1052
F1.0
sg1053
g1059
sg1055
F-1.0
sg1056
F0.0
ssg1068
(dp1205
g1051
F1.82e-07
sg1052
F2.0
sg1053
g1054
sg1055
I0
sg1056
I0
ssg1070
(dp1206
g1051
F2e-07
sg1052
F0.5
sg1053
g1054
sg1055
F0.0
sg1056
F0.0
ssg1072
(dp1207
g1051
F2.79e-07
sg1052
F2.0
sg1053
g1059
sg1055
F-2.0
sg1056
F0.0
ssg1074
(dp1208
g1051
F0.0
sg1052
F2.0
sg1053
g1054
sg1055
F0.0
sg1056
F0.0
ssg1076
(dp1209
g1051
F2e-07
sg1052
F0.5
sg1053
g1054
sg1055
F0.0
sg1056
F0.0
sssg1078
F1000000000.0
sg1079
S'Wait: tau-0'
p1210
sg1081
(dp1211
S'delay-0'
p1212
(imeasurement.lib.pulsar.pulse
SquarePulse
p1213
(dp1214
g1086
Nsg7
g1051
sg1088
I0
sg1091
I0
sg1092
(lp1215
g1057
asg1101
F1.3569999999999999e-06
sg1102
F0.0
sg1108
g1057
sg1087
I0
sbsS'Hermite pi-pulse-0'
p1216
(imeasurement.lib.pulsar.pulselib
HermitePulse_Envelope_IQ
p1217
(dp1218
g1086
Nsg1087
F5e-07
sg1088
F8.569999999999999e-07
sg1089
I01
sg1090
F5e-07
sg1091
F5e-07
sg1092
(lp1219
g1057
ag1066
ag1049
asg1094
I0
sg1095
g1066
sg1096
F1e-08
sg1097
I90
sg1100
F5e-07
sg7
S'Hermite pi-pulse'
p1220
sg1188
I00
sg1189
F1.633659999999999e-08
sg1099
g1057
sg1101
F1.098e-06
sg1190
F5.49e-07
sg1191
F0.812
sg1102
F1.0
sg1103
g1049
sbsg1210
(imeasurement.lib.pulsar.pulse
SquarePulse
p1221
(dp1222
g1086
Nsg7
S'Wait: tau'
p1223
sg1088
F1.455e-06
sg1091
I0
sg1092
(lp1224
g1057
asg1101
F2.357e-06
sg1102
F0.0
sg1108
g1057
sg1087
I0
sbssg1113
I4
sg1114
I00
sg1115
g1116
sg1160
I960
sg1161
I0
sb(imeasurement.lib.pulsar.element
Element
p1225
(dp1226
g1046
I01
sg7
g29
sg1047
(dp1227
g1049
(dp1228
g1051
F2.56e-07
sg1052
F2.0
sg1053
g1054
sg1055
I0
sg1056
F0.0
ssg1057
(dp1229
g1051
F2e-07
sg1052
F1.0
sg1053
g1059
sg1055
F-1.0
sg1056
F0.0
ssg1060
(dp1230
g1051
F0.0
sg1052
F2.0
sg1053
g1054
sg1055
I0
sg1056
F0.0
ssg1062
(dp1231
g1051
F4.949999999999999e-07
sg1052
F1.0
sg1053
g1059
sg1055
F-1.0
sg1056
F0.01
ssg1064
(dp1232
g1051
F1.02e-07
sg1052
F2.0
sg1053
g1054
sg1055
I0
sg1056
F0.0
ssg1066
(dp1233
g1051
F2e-07
sg1052
F1.0
sg1053
g1059
sg1055
F-1.0
sg1056
F0.0
ssg1068
(dp1234
g1051
F1.82e-07
sg1052
F2.0
sg1053
g1054
sg1055
I0
sg1056
I0
ssg1070
(dp1235
g1051
F2e-07
sg1052
F0.5
sg1053
g1054
sg1055
F0.0
sg1056
F0.0
ssg1072
(dp1236
g1051
F2.79e-07
sg1052
F2.0
sg1053
g1059
sg1055
F-2.0
sg1056
F0.0
ssg1074
(dp1237
g1051
F0.0
sg1052
F2.0
sg1053
g1054
sg1055
F0.0
sg1056
F0.0
ssg1076
(dp1238
g1051
F2e-07
sg1052
F0.5
sg1053
g1054
sg1055
F0.0
sg1056
F0.0
sssg1078
F1000000000.0
sg1079
S'Wait: tau-1'
p1239
sg1081
(dp1240
g1239
(imeasurement.lib.pulsar.pulse
SquarePulse
p1241
(dp1242
g1086
Nsg7
g1223
sg1088
F2.4550000000000002e-06
sg1091
I0
sg1092
(lp1243
g1057
asg1101
F2.357e-06
sg1102
F0.0
sg1108
g1057
sg1087
I0
sbsS'Wait: tau-0'
p1244
(imeasurement.lib.pulsar.pulse
SquarePulse
p1245
(dp1246
g1086
Nsg7
g1223
sg1088
I0
sg1091
I0
sg1092
(lp1247
g1057
asg1101
F2.357e-06
sg1102
F0.0
sg1108
g1057
sg1087
I0
sbsS'Hermite pi-pulse-0'
p1248
(imeasurement.lib.pulsar.pulselib
HermitePulse_Envelope_IQ
p1249
(dp1250
g1086
Nsg1087
F5e-07
sg1088
F1.8570000000000002e-06
sg1089
I01
sg1090
F5e-07
sg1091
F5e-07
sg1092
(lp1251
g1057
ag1066
ag1049
asg1094
I0
sg1095
g1066
sg1096
F1e-08
sg1097
I90
sg1100
F5e-07
sg7
g1220
sg1188
I00
sg1189
F1.633659999999999e-08
sg1099
g1057
sg1101
F1.098e-06
sg1190
F5.49e-07
sg1191
F0.812
sg1102
F1.0
sg1103
g1049
sbssg1113
I4
sg1114
I00
sg1115
g1116
sg1160
I960
sg1161
I0
sb(imeasurement.lib.pulsar.element
Element
p1252
(dp1253
g1046
I01
sg7
g24
sg1047
(dp1254
g1049
(dp1255
g1051
F2.56e-07
sg1052
F2.0
sg1053
g1054
sg1055
I0
sg1056
F0.0
ssg1057
(dp1256
g1051
F2e-07
sg1052
F1.0
sg1053
g1059
sg1055
F-1.0
sg1056
F0.0
ssg1060
(dp1257
g1051
F0.0
sg1052
F2.0
sg1053
g1054
sg1055
I0
sg1056
F0.0
ssg1062
(dp1258
g1051
F4.949999999999999e-07
sg1052
F1.0
sg1053
g1059
sg1055
F-1.0
sg1056
F0.01
ssg1064
(dp1259
g1051
F1.02e-07
sg1052
F2.0
sg1053
g1054
sg1055
I0
sg1056
F0.0
ssg1066
(dp1260
g1051
F2e-07
sg1052
F1.0
sg1053
g1059
sg1055
F-1.0
sg1056
F0.0
ssg1068
(dp1261
g1051
F1.82e-07
sg1052
F2.0
sg1053
g1054
sg1055
I0
sg1056
I0
ssg1070
(dp1262
g1051
F2e-07
sg1052
F0.5
sg1053
g1054
sg1055
F0.0
sg1056
F0.0
ssg1072
(dp1263
g1051
F2.79e-07
sg1052
F2.0
sg1053
g1059
sg1055
F-2.0
sg1056
F0.0
ssg1074
(dp1264
g1051
F0.0
sg1052
F2.0
sg1053
g1054
sg1055
F0.0
sg1056
F0.0
ssg1076
(dp1265
g1051
F2e-07
sg1052
F0.5
sg1053
g1054
sg1055
F0.0
sg1056
F0.0
sssg1078
F1000000000.0
sg1079
S'Wait: tau-1'
p1266
sg1081
(dp1267
g1266
(imeasurement.lib.pulsar.pulse
SquarePulse
p1268
(dp1269
g1086
Nsg7
g1223
sg1088
F2.4550000000000002e-06
sg1091
I0
sg1092
(lp1270
g1057
asg1101
F2.357e-06
sg1102
F0.0
sg1108
g1057
sg1087
I0
sbsS'Wait: tau-0'
p1271
(imeasurement.lib.pulsar.pulse
SquarePulse
p1272
(dp1273
g1086
Nsg7
g1223
sg1088
I0
sg1091
I0
sg1092
(lp1274
g1057
asg1101
F2.357e-06
sg1102
F0.0
sg1108
g1057
sg1087
I0
sbsS'Hermite pi-pulse-0'
p1275
(imeasurement.lib.pulsar.pulselib
HermitePulse_Envelope_IQ
p1276
(dp1277
g1086
Nsg1087
F5e-07
sg1088
F1.8570000000000002e-06
sg1089
I01
sg1090
F5e-07
sg1091
F5e-07
sg1092
(lp1278
g1057
ag1066
ag1049
asg1094
I0
sg1095
g1066
sg1096
F1e-08
sg1097
I0
sg1100
F5e-07
sg7
g1220
sg1188
I00
sg1189
F1.633659999999999e-08
sg1099
g1057
sg1101
F1.098e-06
sg1190
F5.49e-07
sg1191
F0.812
sg1102
F1.0
sg1103
g1049
sbssg1113
I4
sg1114
I00
sg1115
g1116
sg1160
I960
sg1161
I0
sb(imeasurement.lib.pulsar.element
Element
p1279
(dp1280
g1046
I01
sg7
g153
sg1047
(dp1281
g1049
(dp1282
g1051
F2.56e-07
sg1052
F2.0
sg1053
g1054
sg1055
I0
sg1056
F0.0
ssg1057
(dp1283
g1051
F2e-07
sg1052
F1.0
sg1053
g1059
sg1055
F-1.0
sg1056
F0.0
ssg1060
(dp1284
g1051
F0.0
sg1052
F2.0
sg1053
g1054
sg1055
I0
sg1056
F0.0
ssg1062
(dp1285
g1051
F4.949999999999999e-07
sg1052
F1.0
sg1053
g1059
sg1055
F-1.0
sg1056
F0.01
ssg1064
(dp1286
g1051
F1.02e-07
sg1052
F2.0
sg1053
g1054
sg1055
I0
sg1056
F0.0
ssg1066
(dp1287
g1051
F2e-07
sg1052
F1.0
sg1053
g1059
sg1055
F-1.0
sg1056
F0.0
ssg1068
(dp1288
g1051
F1.82e-07
sg1052
F2.0
sg1053
g1054
sg1055
I0
sg1056
I0
ssg1070
(dp1289
g1051
F2e-07
sg1052
F0.5
sg1053
g1054
sg1055
F0.0
sg1056
F0.0
ssg1072
(dp1290
g1051
F2.79e-07
sg1052
F2.0
sg1053
g1059
sg1055
F-2.0
sg1056
F0.0
ssg1074
(dp1291
g1051
F0.0
sg1052
F2.0
sg1053
g1054
sg1055
F0.0
sg1056
F0.0
ssg1076
(dp1292
g1051
F2e-07
sg1052
F0.5
sg1053
g1054
sg1055
F0.0
sg1056
F0.0
sssg1078
F1000000000.0
sg1079
S'delay-0'
p1293
sg1081
(dp1294
S'Wait: tau-0'
p1295
(imeasurement.lib.pulsar.pulse
SquarePulse
p1296
(dp1297
g1086
Nsg7
g1223
sg1088
I0
sg1091
I0
sg1092
(lp1298
g1057
asg1101
F2.357e-06
sg1102
F0.0
sg1108
g1057
sg1087
I0
sbsS'Hermite pi-pulse-0'
p1299
(imeasurement.lib.pulsar.pulselib
HermitePulse_Envelope_IQ
p1300
(dp1301
g1086
Nsg1087
F5e-07
sg1088
F1.8570000000000002e-06
sg1089
I01
sg1090
F5e-07
sg1091
F5e-07
sg1092
(lp1302
g1057
ag1066
ag1049
asg1094
I0
sg1095
g1066
sg1096
F1e-08
sg1097
I270
sg1100
F5e-07
sg7
g1220
sg1188
I00
sg1189
F1.633659999999999e-08
sg1099
g1057
sg1101
F1.098e-06
sg1190
F5.49e-07
sg1191
F0.812
sg1102
F1.0
sg1103
g1049
sbsg1293
(imeasurement.lib.pulsar.pulse
SquarePulse
p1303
(dp1304
g1086
Nsg7
g1051
sg1088
F2.4550000000000002e-06
sg1091
I0
sg1092
(lp1305
g1057
asg1101
F1.3569999999999999e-06
sg1102
F0.0
sg1108
g1057
sg1087
I0
sbssg1113
I4
sg1114
I00
sg1115
g1116
sg1160
I960
sg1161
I0
sb(imeasurement.lib.pulsar.element
Element
p1306
(dp1307
g1046
I01
sg7
g17
sg1047
(dp1308
g1049
(dp1309
g1051
F2.56e-07
sg1052
F2.0
sg1053
g1054
sg1055
I0
sg1056
F0.0
ssg1057
(dp1310
g1051
F2e-07
sg1052
F1.0
sg1053
g1059
sg1055
F-1.0
sg1056
F0.0
ssg1060
(dp1311
g1051
F0.0
sg1052
F2.0
sg1053
g1054
sg1055
I0
sg1056
F0.0
ssg1062
(dp1312
g1051
F4.949999999999999e-07
sg1052
F1.0
sg1053
g1059
sg1055
F-1.0
sg1056
F0.01
ssg1064
(dp1313
g1051
F1.02e-07
sg1052
F2.0
sg1053
g1054
sg1055
I0
sg1056
F0.0
ssg1066
(dp1314
g1051
F2e-07
sg1052
F1.0
sg1053
g1059
sg1055
F-1.0
sg1056
F0.0
ssg1068
(dp1315
g1051
F1.82e-07
sg1052
F2.0
sg1053
g1054
sg1055
I0
sg1056
I0
ssg1070
(dp1316
g1051
F2e-07
sg1052
F0.5
sg1053
g1054
sg1055
F0.0
sg1056
F0.0
ssg1072
(dp1317
g1051
F2.79e-07
sg1052
F2.0
sg1053
g1059
sg1055
F-2.0
sg1056
F0.0
ssg1074
(dp1318
g1051
F0.0
sg1052
F2.0
sg1053
g1054
sg1055
F0.0
sg1056
F0.0
ssg1076
(dp1319
g1051
F2e-07
sg1052
F0.5
sg1053
g1054
sg1055
F0.0
sg1056
F0.0
sssg1078
F1000000000.0
sg1079
S'Wait: tau-0'
p1320
sg1081
(dp1321
g1320
(imeasurement.lib.pulsar.pulse
SquarePulse
p1322
(dp1323
g1086
Nsg7
g1223
sg1088
I0
sg1091
I0
sg1092
(lp1324
g1057
asg1101
F1e-06
sg1102
F0.0
sg1108
g1057
sg1087
I0
sbssg1113
I4
sg1114
I00
sg1115
g1116
sg1160
I960
sg1161
I0
sb(imeasurement.lib.pulsar.element
Element
p1325
(dp1326
g1046
I01
sg7
g157
sg1047
(dp1327
g1049
(dp1328
g1051
F2.56e-07
sg1052
F2.0
sg1053
g1054
sg1055
I0
sg1056
F0.0
ssg1057
(dp1329
g1051
F2e-07
sg1052
F1.0
sg1053
g1059
sg1055
F-1.0
sg1056
F0.0
ssg1060
(dp1330
g1051
F0.0
sg1052
F2.0
sg1053
g1054
sg1055
I0
sg1056
F0.0
ssg1062
(dp1331
g1051
F4.949999999999999e-07
sg1052
F1.0
sg1053
g1059
sg1055
F-1.0
sg1056
F0.01
ssg1064
(dp1332
g1051
F1.02e-07
sg1052
F2.0
sg1053
g1054
sg1055
I0
sg1056
F0.0
ssg1066
(dp1333
g1051
F2e-07
sg1052
F1.0
sg1053
g1059
sg1055
F-1.0
sg1056
F0.0
ssg1068
(dp1334
g1051
F1.82e-07
sg1052
F2.0
sg1053
g1054
sg1055
I0
sg1056
I0
ssg1070
(dp1335
g1051
F2e-07
sg1052
F0.5
sg1053
g1054
sg1055
F0.0
sg1056
F0.0
ssg1072
(dp1336
g1051
F2.79e-07
sg1052
F2.0
sg1053
g1059
sg1055
F-2.0
sg1056
F0.0
ssg1074
(dp1337
g1051
F0.0
sg1052
F2.0
sg1053
g1054
sg1055
F0.0
sg1056
F0.0
ssg1076
(dp1338
g1051
F2e-07
sg1052
F0.5
sg1053
g1054
sg1055
F0.0
sg1056
F0.0
sssg1078
F1000000000.0
sg1079
S'wait fin T-0'
p1339
sg1081
(dp1340
S'wait in T-0'
p1341
(imeasurement.lib.pulsar.pulse
SquarePulse
p1342
(dp1343
g1086
Nsg7
g1181
sg1088
I0
sg1091
I0
sg1092
(lp1344
g1057
asg1101
F9.75e-07
sg1102
F0.0
sg1108
g1057
sg1087
I0
sbsS'Hermite Pi/2-pulse-0'
p1345
(imeasurement.lib.pulsar.pulselib
HermitePulse_Envelope_IQ
p1346
(dp1347
g1086
Nsg1087
F5e-07
sg1088
F4.75e-07
sg1089
I01
sg1090
F5e-07
sg1091
F5e-07
sg1092
(lp1348
g1057
ag1066
ag1049
asg1094
I0
sg1095
g1066
sg1096
F1e-08
sg1097
I90
sg1100
F5e-07
sg7
g1187
sg1188
I01
sg1189
F8.33499999999999e-09
sg1099
g1057
sg1101
F1.05e-06
sg1190
F5.25e-07
sg1191
F0.56
sg1102
F1.0
sg1103
g1049
sbsg1339
(imeasurement.lib.pulsar.pulse
SquarePulse
p1349
(dp1350
g1086
Nsg7
g1194
sg1088
F1.025e-06
sg1091
I0
sg1092
(lp1351
g1057
asg1101
F9.75e-07
sg1102
F0.0
sg1108
g1057
sg1087
I0
sbssg1113
I4
sg1114
I00
sg1115
g1116
sg1160
I960
sg1161
I0
sb(imeasurement.lib.pulsar.element
Element
p1352
(dp1353
g1046
I01
sg7
g159
sg1047
(dp1354
g1049
(dp1355
g1051
F2.56e-07
sg1052
F2.0
sg1053
g1054
sg1055
I0
sg1056
F0.0
ssg1057
(dp1356
g1051
F2e-07
sg1052
F1.0
sg1053
g1059
sg1055
F-1.0
sg1056
F0.0
ssg1060
(dp1357
g1051
F0.0
sg1052
F2.0
sg1053
g1054
sg1055
I0
sg1056
F0.0
ssg1062
(dp1358
g1051
F4.949999999999999e-07
sg1052
F1.0
sg1053
g1059
sg1055
F-1.0
sg1056
F0.01
ssg1064
(dp1359
g1051
F1.02e-07
sg1052
F2.0
sg1053
g1054
sg1055
I0
sg1056
F0.0
ssg1066
(dp1360
g1051
F2e-07
sg1052
F1.0
sg1053
g1059
sg1055
F-1.0
sg1056
F0.0
ssg1068
(dp1361
g1051
F1.82e-07
sg1052
F2.0
sg1053
g1054
sg1055
I0
sg1056
I0
ssg1070
(dp1362
g1051
F2e-07
sg1052
F0.5
sg1053
g1054
sg1055
F0.0
sg1056
F0.0
ssg1072
(dp1363
g1051
F2.79e-07
sg1052
F2.0
sg1053
g1059
sg1055
F-2.0
sg1056
F0.0
ssg1074
(dp1364
g1051
F0.0
sg1052
F2.0
sg1053
g1054
sg1055
F0.0
sg1056
F0.0
ssg1076
(dp1365
g1051
F2e-07
sg1052
F0.5
sg1053
g1054
sg1055
F0.0
sg1056
F0.0
sssg1078
F1000000000.0
sg1079
S'square pulse-0'
p1366
sg1081
(dp1367
g1366
(imeasurement.lib.pulsar.pulse
SquarePulse
p1368
(dp1369
g1086
Nsg7
g1106
sg1088
I0
sg1091
I0
sg1092
(lp1370
g1074
asg1101
F7.999999999999999e-05
sg1102
I2
sg1108
g1074
sg1087
I0
sbssg1113
I4
sg1114
I00
sg1115
g1116
sg1160
I960
sg1161
I0
sb(imeasurement.lib.pulsar.element
Element
p1371
(dp1372
g1046
I01
sg7
g160
sg1047
(dp1373
g1049
(dp1374
g1051
F2.56e-07
sg1052
F2.0
sg1053
g1054
sg1055
I0
sg1056
F0.0
ssg1057
(dp1375
g1051
F2e-07
sg1052
F1.0
sg1053
g1059
sg1055
F-1.0
sg1056
F0.0
ssg1060
(dp1376
g1051
F0.0
sg1052
F2.0
sg1053
g1054
sg1055
I0
sg1056
F0.0
ssg1062
(dp1377
g1051
F4.949999999999999e-07
sg1052
F1.0
sg1053
g1059
sg1055
F-1.0
sg1056
F0.01
ssg1064
(dp1378
g1051
F1.02e-07
sg1052
F2.0
sg1053
g1054
sg1055
I0
sg1056
F0.0
ssg1066
(dp1379
g1051
F2e-07
sg1052
F1.0
sg1053
g1059
sg1055
F-1.0
sg1056
F0.0
ssg1068
(dp1380
g1051
F1.82e-07
sg1052
F2.0
sg1053
g1054
sg1055
I0
sg1056
I0
ssg1070
(dp1381
g1051
F2e-07
sg1052
F0.5
sg1053
g1054
sg1055
F0.0
sg1056
F0.0
ssg1072
(dp1382
g1051
F2.79e-07
sg1052
F2.0
sg1053
g1059
sg1055
F-2.0
sg1056
F0.0
ssg1074
(dp1383
g1051
F0.0
sg1052
F2.0
sg1053
g1054
sg1055
F0.0
sg1056
F0.0
ssg1076
(dp1384
g1051
F2e-07
sg1052
F0.5
sg1053
g1054
sg1055
F0.0
sg1056
F0.0
sssg1078
F1000000000.0
sg1079
S'wait fin T-0'
p1385
sg1081
(dp1386
S'wait in T-0'
p1387
(imeasurement.lib.pulsar.pulse
SquarePulse
p1388
(dp1389
g1086
Nsg7
g1181
sg1088
I0
sg1091
I0
sg1092
(lp1390
g1057
asg1101
F1.652e-06
sg1102
F0.0
sg1108
g1057
sg1087
I0
sbsS'Hermite Pi/2-pulse-0'
p1391
(imeasurement.lib.pulsar.pulselib
HermitePulse_Envelope_IQ
p1392
(dp1393
g1086
Nsg1087
F5e-07
sg1088
F1.1520000000000002e-06
sg1089
I01
sg1090
F5e-07
sg1091
F5e-07
sg1092
(lp1394
g1057
ag1066
ag1049
asg1094
I0
sg1095
g1066
sg1096
F1e-08
sg1097
I0
sg1100
F5e-07
sg7
g1187
sg1188
I01
sg1189
F8.33499999999999e-09
sg1099
g1057
sg1101
F1.05e-06
sg1190
F5.25e-07
sg1191
F0.56
sg1102
F1.0
sg1103
g1049
sbsg1385
(imeasurement.lib.pulsar.pulse
SquarePulse
p1395
(dp1396
g1086
Nsg7
g1194
sg1088
F1.7020000000000004e-06
sg1091
I0
sg1092
(lp1397
g1057
asg1101
F9.75e-07
sg1102
F0.0
sg1108
g1057
sg1087
I0
sbssg1113
I4
sg1114
I00
sg1115
g1116
sg1160
I960
sg1161
I0
sb(imeasurement.lib.pulsar.element
Element
p1398
(dp1399
g1046
I01
sg7
g163
sg1047
(dp1400
g1049
(dp1401
g1051
F2.56e-07
sg1052
F2.0
sg1053
g1054
sg1055
I0
sg1056
F0.0
ssg1057
(dp1402
g1051
F2e-07
sg1052
F1.0
sg1053
g1059
sg1055
F-1.0
sg1056
F0.0
ssg1060
(dp1403
g1051
F0.0
sg1052
F2.0
sg1053
g1054
sg1055
I0
sg1056
F0.0
ssg1062
(dp1404
g1051
F4.949999999999999e-07
sg1052
F1.0
sg1053
g1059
sg1055
F-1.0
sg1056
F0.01
ssg1064
(dp1405
g1051
F1.02e-07
sg1052
F2.0
sg1053
g1054
sg1055
I0
sg1056
F0.0
ssg1066
(dp1406
g1051
F2e-07
sg1052
F1.0
sg1053
g1059
sg1055
F-1.0
sg1056
F0.0
ssg1068
(dp1407
g1051
F1.82e-07
sg1052
F2.0
sg1053
g1054
sg1055
I0
sg1056
I0
ssg1070
(dp1408
g1051
F2e-07
sg1052
F0.5
sg1053
g1054
sg1055
F0.0
sg1056
F0.0
ssg1072
(dp1409
g1051
F2.79e-07
sg1052
F2.0
sg1053
g1059
sg1055
F-2.0
sg1056
F0.0
ssg1074
(dp1410
g1051
F0.0
sg1052
F2.0
sg1053
g1054
sg1055
F0.0
sg1056
F0.0
ssg1076
(dp1411
g1051
F2e-07
sg1052
F0.5
sg1053
g1054
sg1055
F0.0
sg1056
F0.0
sssg1078
F1000000000.0
sg1079
S'Wait: tau-0'
p1412
sg1081
(dp1413
S'delay-0'
p1414
(imeasurement.lib.pulsar.pulse
SquarePulse
p1415
(dp1416
g1086
Nsg7
g1051
sg1088
I0
sg1091
I0
sg1092
(lp1417
g1057
asg1101
F1.3569999999999999e-06
sg1102
F0.0
sg1108
g1057
sg1087
I0
sbsS'Hermite pi-pulse-0'
p1418
(imeasurement.lib.pulsar.pulselib
HermitePulse_Envelope_IQ
p1419
(dp1420
g1086
Nsg1087
F5e-07
sg1088
F8.569999999999999e-07
sg1089
I01
sg1090
F5e-07
sg1091
F5e-07
sg1092
(lp1421
g1057
ag1066
ag1049
asg1094
I0
sg1095
g1066
sg1096
F1e-08
sg1097
I90
sg1100
F5e-07
sg7
g1220
sg1188
I00
sg1189
F1.633659999999999e-08
sg1099
g1057
sg1101
F1.098e-06
sg1190
F5.49e-07
sg1191
F0.812
sg1102
F1.0
sg1103
g1049
sbsg1412
(imeasurement.lib.pulsar.pulse
SquarePulse
p1422
(dp1423
g1086
Nsg7
g1223
sg1088
F1.455e-06
sg1091
I0
sg1092
(lp1424
g1057
asg1101
F2.357e-06
sg1102
F0.0
sg1108
g1057
sg1087
I0
sbssg1113
I4
sg1114
I00
sg1115
g1116
sg1160
I960
sg1161
I0
sb(imeasurement.lib.pulsar.element
Element
p1425
(dp1426
g1046
I01
sg7
g176
sg1047
(dp1427
g1049
(dp1428
g1051
F2.56e-07
sg1052
F2.0
sg1053
g1054
sg1055
I0
sg1056
F0.0
ssg1057
(dp1429
g1051
F2e-07
sg1052
F1.0
sg1053
g1059
sg1055
F-1.0
sg1056
F0.0
ssg1060
(dp1430
g1051
F0.0
sg1052
F2.0
sg1053
g1054
sg1055
I0
sg1056
F0.0
ssg1062
(dp1431
g1051
F4.949999999999999e-07
sg1052
F1.0
sg1053
g1059
sg1055
F-1.0
sg1056
F0.01
ssg1064
(dp1432
g1051
F1.02e-07
sg1052
F2.0
sg1053
g1054
sg1055
I0
sg1056
F0.0
ssg1066
(dp1433
g1051
F2e-07
sg1052
F1.0
sg1053
g1059
sg1055
F-1.0
sg1056
F0.0
ssg1068
(dp1434
g1051
F1.82e-07
sg1052
F2.0
sg1053
g1054
sg1055
I0
sg1056
I0
ssg1070
(dp1435
g1051
F2e-07
sg1052
F0.5
sg1053
g1054
sg1055
F0.0
sg1056
F0.0
ssg1072
(dp1436
g1051
F2.79e-07
sg1052
F2.0
sg1053
g1059
sg1055
F-2.0
sg1056
F0.0
ssg1074
(dp1437
g1051
F0.0
sg1052
F2.0
sg1053
g1054
sg1055
F0.0
sg1056
F0.0
ssg1076
(dp1438
g1051
F2e-07
sg1052
F0.5
sg1053
g1054
sg1055
F0.0
sg1056
F0.0
sssg1078
F1000000000.0
sg1079
S'Wait: tau-1'
p1439
sg1081
(dp1440
g1439
(imeasurement.lib.pulsar.pulse
SquarePulse
p1441
(dp1442
g1086
Nsg7
g1223
sg1088
F2.4550000000000002e-06
sg1091
I0
sg1092
(lp1443
g1057
asg1101
F2.357e-06
sg1102
F0.0
sg1108
g1057
sg1087
I0
sbsS'Wait: tau-0'
p1444
(imeasurement.lib.pulsar.pulse
SquarePulse
p1445
(dp1446
g1086
Nsg7
g1223
sg1088
I0
sg1091
I0
sg1092
(lp1447
g1057
asg1101
F2.357e-06
sg1102
F0.0
sg1108
g1057
sg1087
I0
sbsS'Hermite pi-pulse-0'
p1448
(imeasurement.lib.pulsar.pulselib
HermitePulse_Envelope_IQ
p1449
(dp1450
g1086
Nsg1087
F5e-07
sg1088
F1.8570000000000002e-06
sg1089
I01
sg1090
F5e-07
sg1091
F5e-07
sg1092
(lp1451
g1057
ag1066
ag1049
asg1094
I0
sg1095
g1066
sg1096
F1e-08
sg1097
I90
sg1100
F5e-07
sg7
g1220
sg1188
I00
sg1189
F1.633659999999999e-08
sg1099
g1057
sg1101
F1.098e-06
sg1190
F5.49e-07
sg1191
F0.812
sg1102
F1.0
sg1103
g1049
sbssg1113
I4
sg1114
I00
sg1115
g1116
sg1160
I960
sg1161
I0
sb(imeasurement.lib.pulsar.element
Element
p1452
(dp1453
g1046
I01
sg7
g171
sg1047
(dp1454
g1049
(dp1455
g1051
F2.56e-07
sg1052
F2.0
sg1053
g1054
sg1055
I0
sg1056
F0.0
ssg1057
(dp1456
g1051
F2e-07
sg1052
F1.0
sg1053
g1059
sg1055
F-1.0
sg1056
F0.0
ssg1060
(dp1457
g1051
F0.0
sg1052
F2.0
sg1053
g1054
sg1055
I0
sg1056
F0.0
ssg1062
(dp1458
g1051
F4.949999999999999e-07
sg1052
F1.0
sg1053
g1059
sg1055
F-1.0
sg1056
F0.01
ssg1064
(dp1459
g1051
F1.02e-07
sg1052
F2.0
sg1053
g1054
sg1055
I0
sg1056
F0.0
ssg1066
(dp1460
g1051
F2e-07
sg1052
F1.0
sg1053
g1059
sg1055
F-1.0
sg1056
F0.0
ssg1068
(dp1461
g1051
F1.82e-07
sg1052
F2.0
sg1053
g1054
sg1055
I0
sg1056
I0
ssg1070
(dp1462
g1051
F2e-07
sg1052
F0.5
sg1053
g1054
sg1055
F0.0
sg1056
F0.0
ssg1072
(dp1463
g1051
F2.79e-07
sg1052
F2.0
sg1053
g1059
sg1055
F-2.0
sg1056
F0.0
ssg1074
(dp1464
g1051
F0.0
sg1052
F2.0
sg1053
g1054
sg1055
F0.0
sg1056
F0.0
ssg1076
(dp1465
g1051
F2e-07
sg1052
F0.5
sg1053
g1054
sg1055
F0.0
sg1056
F0.0
sssg1078
F1000000000.0
sg1079
S'Wait: tau-1'
p1466
sg1081
(dp1467
g1466
(imeasurement.lib.pulsar.pulse
SquarePulse
p1468
(dp1469
g1086
Nsg7
g1223
sg1088
F2.4550000000000002e-06
sg1091
I0
sg1092
(lp1470
g1057
asg1101
F2.357e-06
sg1102
F0.0
sg1108
g1057
sg1087
I0
sbsS'Wait: tau-0'
p1471
(imeasurement.lib.pulsar.pulse
SquarePulse
p1472
(dp1473
g1086
Nsg7
g1223
sg1088
I0
sg1091
I0
sg1092
(lp1474
g1057
asg1101
F2.357e-06
sg1102
F0.0
sg1108
g1057
sg1087
I0
sbsS'Hermite pi-pulse-0'
p1475
(imeasurement.lib.pulsar.pulselib
HermitePulse_Envelope_IQ
p1476
(dp1477
g1086
Nsg1087
F5e-07
sg1088
F1.8570000000000002e-06
sg1089
I01
sg1090
F5e-07
sg1091
F5e-07
sg1092
(lp1478
g1057
ag1066
ag1049
asg1094
I0
sg1095
g1066
sg1096
F1e-08
sg1097
I0
sg1100
F5e-07
sg7
g1220
sg1188
I00
sg1189
F1.633659999999999e-08
sg1099
g1057
sg1101
F1.098e-06
sg1190
F5.49e-07
sg1191
F0.812
sg1102
F1.0
sg1103
g1049
sbssg1113
I4
sg1114
I00
sg1115
g1116
sg1160
I960
sg1161
I0
sb(imeasurement.lib.pulsar.element
Element
p1479
(dp1480
g1046
I01
sg7
g300
sg1047
(dp1481
g1049
(dp1482
g1051
F2.56e-07
sg1052
F2.0
sg1053
g1054
sg1055
I0
sg1056
F0.0
ssg1057
(dp1483
g1051
F2e-07
sg1052
F1.0
sg1053
g1059
sg1055
F-1.0
sg1056
F0.0
ssg1060
(dp1484
g1051
F0.0
sg1052
F2.0
sg1053
g1054
sg1055
I0
sg1056
F0.0
ssg1062
(dp1485
g1051
F4.949999999999999e-07
sg1052
F1.0
sg1053
g1059
sg1055
F-1.0
sg1056
F0.01
ssg1064
(dp1486
g1051
F1.02e-07
sg1052
F2.0
sg1053
g1054
sg1055
I0
sg1056
F0.0
ssg1066
(dp1487
g1051
F2e-07
sg1052
F1.0
sg1053
g1059
sg1055
F-1.0
sg1056
F0.0
ssg1068
(dp1488
g1051
F1.82e-07
sg1052
F2.0
sg1053
g1054
sg1055
I0
sg1056
I0
ssg1070
(dp1489
g1051
F2e-07
sg1052
F0.5
sg1053
g1054
sg1055
F0.0
sg1056
F0.0
ssg1072
(dp1490
g1051
F2.79e-07
sg1052
F2.0
sg1053
g1059
sg1055
F-2.0
sg1056
F0.0
ssg1074
(dp1491
g1051
F0.0
sg1052
F2.0
sg1053
g1054
sg1055
F0.0
sg1056
F0.0
ssg1076
(dp1492
g1051
F2e-07
sg1052
F0.5
sg1053
g1054
sg1055
F0.0
sg1056
F0.0
sssg1078
F1000000000.0
sg1079
S'delay-0'
p1493
sg1081
(dp1494
S'Wait: tau-0'
p1495
(imeasurement.lib.pulsar.pulse
SquarePulse
p1496
(dp1497
g1086
Nsg7
g1223
sg1088
I0
sg1091
I0
sg1092
(lp1498
g1057
asg1101
F2.357e-06
sg1102
F0.0
sg1108
g1057
sg1087
I0
sbsS'Hermite pi-pulse-0'
p1499
(imeasurement.lib.pulsar.pulselib
HermitePulse_Envelope_IQ
p1500
(dp1501
g1086
Nsg1087
F5e-07
sg1088
F1.8570000000000002e-06
sg1089
I01
sg1090
F5e-07
sg1091
F5e-07
sg1092
(lp1502
g1057
ag1066
ag1049
asg1094
I0
sg1095
g1066
sg1096
F1e-08
sg1097
I270
sg1100
F5e-07
sg7
g1220
sg1188
I00
sg1189
F1.633659999999999e-08
sg1099
g1057
sg1101
F1.098e-06
sg1190
F5.49e-07
sg1191
F0.812
sg1102
F1.0
sg1103
g1049
sbsg1493
(imeasurement.lib.pulsar.pulse
SquarePulse
p1503
(dp1504
g1086
Nsg7
g1051
sg1088
F2.4550000000000002e-06
sg1091
I0
sg1092
(lp1505
g1057
asg1101
F1.3569999999999999e-06
sg1102
F0.0
sg1108
g1057
sg1087
I0
sbssg1113
I4
sg1114
I00
sg1115
g1116
sg1160
I960
sg1161
I0
sb(imeasurement.lib.pulsar.element
Element
p1506
(dp1507
g1046
I01
sg7
g164
sg1047
(dp1508
g1049
(dp1509
g1051
F2.56e-07
sg1052
F2.0
sg1053
g1054
sg1055
I0
sg1056
F0.0
ssg1057
(dp1510
g1051
F2e-07
sg1052
F1.0
sg1053
g1059
sg1055
F-1.0
sg1056
F0.0
ssg1060
(dp1511
g1051
F0.0
sg1052
F2.0
sg1053
g1054
sg1055
I0
sg1056
F0.0
ssg1062
(dp1512
g1051
F4.949999999999999e-07
sg1052
F1.0
sg1053
g1059
sg1055
F-1.0
sg1056
F0.01
ssg1064
(dp1513
g1051
F1.02e-07
sg1052
F2.0
sg1053
g1054
sg1055
I0
sg1056
F0.0
ssg1066
(dp1514
g1051
F2e-07
sg1052
F1.0
sg1053
g1059
sg1055
F-1.0
sg1056
F0.0
ssg1068
(dp1515
g1051
F1.82e-07
sg1052
F2.0
sg1053
g1054
sg1055
I0
sg1056
I0
ssg1070
(dp1516
g1051
F2e-07
sg1052
F0.5
sg1053
g1054
sg1055
F0.0
sg1056
F0.0
ssg1072
(dp1517
g1051
F2.79e-07
sg1052
F2.0
sg1053
g1059
sg1055
F-2.0
sg1056
F0.0
ssg1074
(dp1518
g1051
F0.0
sg1052
F2.0
sg1053
g1054
sg1055
F0.0
sg1056
F0.0
ssg1076
(dp1519
g1051
F2e-07
sg1052
F0.5
sg1053
g1054
sg1055
F0.0
sg1056
F0.0
sssg1078
F1000000000.0
sg1079
S'Wait: tau-0'
p1520
sg1081
(dp1521
g1520
(imeasurement.lib.pulsar.pulse
SquarePulse
p1522
(dp1523
g1086
Nsg7
g1223
sg1088
I0
sg1091
I0
sg1092
(lp1524
g1057
asg1101
F1e-06
sg1102
F0.0
sg1108
g1057
sg1087
I0
sbssg1113
I4
sg1114
I00
sg1115
g1116
sg1160
I960
sg1161
I0
sb(imeasurement.lib.pulsar.element
Element
p1525
(dp1526
g1046
I01
sg7
g304
sg1047
(dp1527
g1049
(dp1528
g1051
F2.56e-07
sg1052
F2.0
sg1053
g1054
sg1055
I0
sg1056
F0.0
ssg1057
(dp1529
g1051
F2e-07
sg1052
F1.0
sg1053
g1059
sg1055
F-1.0
sg1056
F0.0
ssg1060
(dp1530
g1051
F0.0
sg1052
F2.0
sg1053
g1054
sg1055
I0
sg1056
F0.0
ssg1062
(dp1531
g1051
F4.949999999999999e-07
sg1052
F1.0
sg1053
g1059
sg1055
F-1.0
sg1056
F0.01
ssg1064
(dp1532
g1051
F1.02e-07
sg1052
F2.0
sg1053
g1054
sg1055
I0
sg1056
F0.0
ssg1066
(dp1533
g1051
F2e-07
sg1052
F1.0
sg1053
g1059
sg1055
F-1.0
sg1056
F0.0
ssg1068
(dp1534
g1051
F1.82e-07
sg1052
F2.0
sg1053
g1054
sg1055
I0
sg1056
I0
ssg1070
(dp1535
g1051
F2e-07
sg1052
F0.5
sg1053
g1054
sg1055
F0.0
sg1056
F0.0
ssg1072
(dp1536
g1051
F2.79e-07
sg1052
F2.0
sg1053
g1059
sg1055
F-2.0
sg1056
F0.0
ssg1074
(dp1537
g1051
F0.0
sg1052
F2.0
sg1053
g1054
sg1055
F0.0
sg1056
F0.0
ssg1076
(dp1538
g1051
F2e-07
sg1052
F0.5
sg1053
g1054
sg1055
F0.0
sg1056
F0.0
sssg1078
F1000000000.0
sg1079
S'wait fin T-0'
p1539
sg1081
(dp1540
S'wait in T-0'
p1541
(imeasurement.lib.pulsar.pulse
SquarePulse
p1542
(dp1543
g1086
Nsg7
g1181
sg1088
I0
sg1091
I0
sg1092
(lp1544
g1057
asg1101
F9.75e-07
sg1102
F0.0
sg1108
g1057
sg1087
I0
sbsS'Hermite Pi/2-pulse-0'
p1545
(imeasurement.lib.pulsar.pulselib
HermitePulse_Envelope_IQ
p1546
(dp1547
g1086
Nsg1087
F5e-07
sg1088
F4.75e-07
sg1089
I01
sg1090
F5e-07
sg1091
F5e-07
sg1092
(lp1548
g1057
ag1066
ag1049
asg1094
I0
sg1095
g1066
sg1096
F1e-08
sg1097
cnumpy.core.multiarray
scalar
p1549
(cnumpy
dtype
p1550
(S'i4'
p1551
I0
I1
tp1552
Rp1553
(I3
S'<'
p1554
NNNI-1
I-1
I0
tp1555
bS'Z\x00\x00\x00'
p1556
tp1557
Rp1558
sg1100
F5e-07
sg7
g1187
sg1188
I01
sg1189
F8.33499999999999e-09
sg1099
g1057
sg1101
F1.05e-06
sg1190
F5.25e-07
sg1191
F0.56
sg1102
F1.0
sg1103
g1049
sbsg1539
(imeasurement.lib.pulsar.pulse
SquarePulse
p1559
(dp1560
g1086
Nsg7
g1194
sg1088
F1.025e-06
sg1091
I0
sg1092
(lp1561
g1057
asg1101
F9.75e-07
sg1102
F0.0
sg1108
g1057
sg1087
I0
sbssg1113
I4
sg1114
I00
sg1115
g1116
sg1160
I960
sg1161
I0
sb(imeasurement.lib.pulsar.element
Element
p1562
(dp1563
g1046
I01
sg7
g306
sg1047
(dp1564
g1049
(dp1565
g1051
F2.56e-07
sg1052
F2.0
sg1053
g1054
sg1055
I0
sg1056
F0.0
ssg1057
(dp1566
g1051
F2e-07
sg1052
F1.0
sg1053
g1059
sg1055
F-1.0
sg1056
F0.0
ssg1060
(dp1567
g1051
F0.0
sg1052
F2.0
sg1053
g1054
sg1055
I0
sg1056
F0.0
ssg1062
(dp1568
g1051
F4.949999999999999e-07
sg1052
F1.0
sg1053
g1059
sg1055
F-1.0
sg1056
F0.01
ssg1064
(dp1569
g1051
F1.02e-07
sg1052
F2.0
sg1053
g1054
sg1055
I0
sg1056
F0.0
ssg1066
(dp1570
g1051
F2e-07
sg1052
F1.0
sg1053
g1059
sg1055
F-1.0
sg1056
F0.0
ssg1068
(dp1571
g1051
F1.82e-07
sg1052
F2.0
sg1053
g1054
sg1055
I0
sg1056
I0
ssg1070
(dp1572
g1051
F2e-07
sg1052
F0.5
sg1053
g1054
sg1055
F0.0
sg1056
F0.0
ssg1072
(dp1573
g1051
F2.79e-07
sg1052
F2.0
sg1053
g1059
sg1055
F-2.0
sg1056
F0.0
ssg1074
(dp1574
g1051
F0.0
sg1052
F2.0
sg1053
g1054
sg1055
F0.0
sg1056
F0.0
ssg1076
(dp1575
g1051
F2e-07
sg1052
F0.5
sg1053
g1054
sg1055
F0.0
sg1056
F0.0
sssg1078
F1000000000.0
sg1079
S'square pulse-0'
p1576
sg1081
(dp1577
g1576
(imeasurement.lib.pulsar.pulse
SquarePulse
p1578
(dp1579
g1086
Nsg7
g1106
sg1088
I0
sg1091
I0
sg1092
(lp1580
g1074
asg1101
F1e-05
sg1102
I2
sg1108
g1074
sg1087
I0
sbssg1113
I4
sg1114
I00
sg1115
g1116
sg1160
I960
sg1161
I0
sb(imeasurement.lib.pulsar.element
Element
p1581
(dp1582
g1046
I00
sg7
g308
sg1047
(dp1583
g1049
(dp1584
g1051
F2.56e-07
sg1052
F2.0
sg1053
g1054
sg1055
I0
sg1056
F0.0
ssg1057
(dp1585
g1051
F2e-07
sg1052
F1.0
sg1053
g1059
sg1055
F-1.0
sg1056
F0.0
ssg1060
(dp1586
g1051
F0.0
sg1052
F2.0
sg1053
g1054
sg1055
I0
sg1056
F0.0
ssg1062
(dp1587
g1051
F4.949999999999999e-07
sg1052
F1.0
sg1053
g1059
sg1055
F-1.0
sg1056
F0.01
ssg1064
(dp1588
g1051
F1.02e-07
sg1052
F2.0
sg1053
g1054
sg1055
I0
sg1056
F0.0
ssg1066
(dp1589
g1051
F2e-07
sg1052
F1.0
sg1053
g1059
sg1055
F-1.0
sg1056
F0.0
ssg1068
(dp1590
g1051
F1.82e-07
sg1052
F2.0
sg1053
g1054
sg1055
I0
sg1056
I0
ssg1070
(dp1591
g1051
F2e-07
sg1052
F0.5
sg1053
g1054
sg1055
F0.0
sg1056
F0.0
ssg1072
(dp1592
g1051
F2.79e-07
sg1052
F2.0
sg1053
g1059
sg1055
F-2.0
sg1056
F0.0
ssg1074
(dp1593
g1051
F0.0
sg1052
F2.0
sg1053
g1054
sg1055
F0.0
sg1056
F0.0
ssg1076
(dp1594
g1051
F2e-07
sg1052
F0.5
sg1053
g1054
sg1055
F0.0
sg1056
F0.0
sssg1078
F1000000000.0
sg1079
S'square pulse-1'
p1595
sg1081
(dp1596
S'MBI MW pulse-0'
p1597
(imeasurement.lib.pulsar.pulselib
MW_IQmod_pulse
p1598
(dp1599
g1086
Nsg1087
F5e-07
sg1088
F-4e-07
sg1089
I01
sg1090
F5e-07
sg1091
F5e-07
sg1092
(lp1600
g1057
ag1066
ag1049
asg1094
I0
sg1095
g1066
sg1096
F1e-08
sg1097
F0.0
sg7
g1098
sg1099
g1057
sg1100
F5e-07
sg1101
F3e-06
sg1102
F0.0
sg1103
g1049
sbsg1595
(imeasurement.lib.pulsar.pulse
SquarePulse
p1601
(dp1602
g1086
Nsg7
g1106
sg1088
F2.1000000000000002e-06
sg1091
I0
sg1092
(lp1603
g1074
asg1101
F2.7000000000000002e-05
sg1102
I2
sg1108
g1074
sg1087
I0
sbsS'square pulse-0'
p1604
(imeasurement.lib.pulsar.pulse
SquarePulse
p1605
(dp1606
g1086
Nsg7
g1106
sg1088
I0
sg1091
I0
sg1092
(lp1607
g1049
asg1101
F1e-07
sg1102
I0
sg1108
g1049
sg1087
I0
sbssg1113
I4
sg1114
I00
sg1115
g1116
sg1160
I960
sg1161
I0
sb(imeasurement.lib.pulsar.element
Element
p1608
(dp1609
g1046
I01
sg7
g309
sg1047
(dp1610
g1049
(dp1611
g1051
F2.56e-07
sg1052
F2.0
sg1053
g1054
sg1055
I0
sg1056
F0.0
ssg1057
(dp1612
g1051
F2e-07
sg1052
F1.0
sg1053
g1059
sg1055
F-1.0
sg1056
F0.0
ssg1060
(dp1613
g1051
F0.0
sg1052
F2.0
sg1053
g1054
sg1055
I0
sg1056
F0.0
ssg1062
(dp1614
g1051
F4.949999999999999e-07
sg1052
F1.0
sg1053
g1059
sg1055
F-1.0
sg1056
F0.01
ssg1064
(dp1615
g1051
F1.02e-07
sg1052
F2.0
sg1053
g1054
sg1055
I0
sg1056
F0.0
ssg1066
(dp1616
g1051
F2e-07
sg1052
F1.0
sg1053
g1059
sg1055
F-1.0
sg1056
F0.0
ssg1068
(dp1617
g1051
F1.82e-07
sg1052
F2.0
sg1053
g1054
sg1055
I0
sg1056
I0
ssg1070
(dp1618
g1051
F2e-07
sg1052
F0.5
sg1053
g1054
sg1055
F0.0
sg1056
F0.0
ssg1072
(dp1619
g1051
F2.79e-07
sg1052
F2.0
sg1053
g1059
sg1055
F-2.0
sg1056
F0.0
ssg1074
(dp1620
g1051
F0.0
sg1052
F2.0
sg1053
g1054
sg1055
F0.0
sg1056
F0.0
ssg1076
(dp1621
g1051
F2e-07
sg1052
F0.5
sg1053
g1054
sg1055
F0.0
sg1056
F0.0
sssg1078
F1000000000.0
sg1079
S'wait fin T-0'
p1622
sg1081
(dp1623
S'wait in T-0'
p1624
(imeasurement.lib.pulsar.pulse
SquarePulse
p1625
(dp1626
g1086
Nsg7
g1181
sg1088
I0
sg1091
I0
sg1092
(lp1627
g1057
asg1101
F9.75e-07
sg1102
F0.0
sg1108
g1057
sg1087
I0
sbsS'Hermite Pi/2-pulse-0'
p1628
(imeasurement.lib.pulsar.pulselib
HermitePulse_Envelope_IQ
p1629
(dp1630
g1086
Nsg1087
F5e-07
sg1088
F4.75e-07
sg1089
I01
sg1090
F5e-07
sg1091
F5e-07
sg1092
(lp1631
g1057
ag1066
ag1049
asg1094
I0
sg1095
g1066
sg1096
F1e-08
sg1097
I0
sg1100
F5e-07
sg7
g1187
sg1188
I01
sg1189
F8.33499999999999e-09
sg1099
g1057
sg1101
F1.05e-06
sg1190
F5.25e-07
sg1191
F0.56
sg1102
F1.0
sg1103
g1049
sbsg1622
(imeasurement.lib.pulsar.pulse
SquarePulse
p1632
(dp1633
g1086
Nsg7
g1194
sg1088
F1.025e-06
sg1091
I0
sg1092
(lp1634
g1057
asg1101
F9.75e-07
sg1102
F0.0
sg1108
g1057
sg1087
I0
sbssg1113
I4
sg1114
I00
sg1115
g1116
sg1160
I960
sg1161
I0
sb(imeasurement.lib.pulsar.element
Element
p1635
(dp1636
g1046
I01
sg7
g312
sg1047
(dp1637
g1049
(dp1638
g1051
F2.56e-07
sg1052
F2.0
sg1053
g1054
sg1055
I0
sg1056
F0.0
ssg1057
(dp1639
g1051
F2e-07
sg1052
F1.0
sg1053
g1059
sg1055
F-1.0
sg1056
F0.0
ssg1060
(dp1640
g1051
F0.0
sg1052
F2.0
sg1053
g1054
sg1055
I0
sg1056
F0.0
ssg1062
(dp1641
g1051
F4.949999999999999e-07
sg1052
F1.0
sg1053
g1059
sg1055
F-1.0
sg1056
F0.01
ssg1064
(dp1642
g1051
F1.02e-07
sg1052
F2.0
sg1053
g1054
sg1055
I0
sg1056
F0.0
ssg1066
(dp1643
g1051
F2e-07
sg1052
F1.0
sg1053
g1059
sg1055
F-1.0
sg1056
F0.0
ssg1068
(dp1644
g1051
F1.82e-07
sg1052
F2.0
sg1053
g1054
sg1055
I0
sg1056
I0
ssg1070
(dp1645
g1051
F2e-07
sg1052
F0.5
sg1053
g1054
sg1055
F0.0
sg1056
F0.0
ssg1072
(dp1646
g1051
F2.79e-07
sg1052
F2.0
sg1053
g1059
sg1055
F-2.0
sg1056
F0.0
ssg1074
(dp1647
g1051
F0.0
sg1052
F2.0
sg1053
g1054
sg1055
F0.0
sg1056
F0.0
ssg1076
(dp1648
g1051
F2e-07
sg1052
F0.5
sg1053
g1054
sg1055
F0.0
sg1056
F0.0
sssg1078
F1000000000.0
sg1079
S'Wait: tau-0'
p1649
sg1081
(dp1650
S'delay-0'
p1651
(imeasurement.lib.pulsar.pulse
SquarePulse
p1652
(dp1653
g1086
Nsg7
g1051
sg1088
I0
sg1091
I0
sg1092
(lp1654
g1057
asg1101
F1.3569999999999999e-06
sg1102
F0.0
sg1108
g1057
sg1087
I0
sbsS'Hermite pi-pulse-0'
p1655
(imeasurement.lib.pulsar.pulselib
HermitePulse_Envelope_IQ
p1656
(dp1657
g1086
Nsg1087
F5e-07
sg1088
F8.569999999999999e-07
sg1089
I01
sg1090
F5e-07
sg1091
F5e-07
sg1092
(lp1658
g1057
ag1066
ag1049
asg1094
I0
sg1095
g1066
sg1096
F1e-08
sg1097
I90
sg1100
F5e-07
sg7
g1220
sg1188
I00
sg1189
F1.633659999999999e-08
sg1099
g1057
sg1101
F1.098e-06
sg1190
F5.49e-07
sg1191
F0.812
sg1102
F1.0
sg1103
g1049
sbsg1649
(imeasurement.lib.pulsar.pulse
SquarePulse
p1659
(dp1660
g1086
Nsg7
g1223
sg1088
F1.455e-06
sg1091
I0
sg1092
(lp1661
g1057
asg1101
F2.357e-06
sg1102
F0.0
sg1108
g1057
sg1087
I0
sbssg1113
I4
sg1114
I00
sg1115
g1116
sg1160
I960
sg1161
I0
sb(imeasurement.lib.pulsar.element
Element
p1662
(dp1663
g1046
I01
sg7
g325
sg1047
(dp1664
g1049
(dp1665
g1051
F2.56e-07
sg1052
F2.0
sg1053
g1054
sg1055
I0
sg1056
F0.0
ssg1057
(dp1666
g1051
F2e-07
sg1052
F1.0
sg1053
g1059
sg1055
F-1.0
sg1056
F0.0
ssg1060
(dp1667
g1051
F0.0
sg1052
F2.0
sg1053
g1054
sg1055
I0
sg1056
F0.0
ssg1062
(dp1668
g1051
F4.949999999999999e-07
sg1052
F1.0
sg1053
g1059
sg1055
F-1.0
sg1056
F0.01
ssg1064
(dp1669
g1051
F1.02e-07
sg1052
F2.0
sg1053
g1054
sg1055
I0
sg1056
F0.0
ssg1066
(dp1670
g1051
F2e-07
sg1052
F1.0
sg1053
g1059
sg1055
F-1.0
sg1056
F0.0
ssg1068
(dp1671
g1051
F1.82e-07
sg1052
F2.0
sg1053
g1054
sg1055
I0
sg1056
I0
ssg1070
(dp1672
g1051
F2e-07
sg1052
F0.5
sg1053
g1054
sg1055
F0.0
sg1056
F0.0
ssg1072
(dp1673
g1051
F2.79e-07
sg1052
F2.0
sg1053
g1059
sg1055
F-2.0
sg1056
F0.0
ssg1074
(dp1674
g1051
F0.0
sg1052
F2.0
sg1053
g1054
sg1055
F0.0
sg1056
F0.0
ssg1076
(dp1675
g1051
F2e-07
sg1052
F0.5
sg1053
g1054
sg1055
F0.0
sg1056
F0.0
sssg1078
F1000000000.0
sg1079
S'Wait: tau-1'
p1676
sg1081
(dp1677
g1676
(imeasurement.lib.pulsar.pulse
SquarePulse
p1678
(dp1679
g1086
Nsg7
g1223
sg1088
F2.4550000000000002e-06
sg1091
I0
sg1092
(lp1680
g1057
asg1101
F2.357e-06
sg1102
F0.0
sg1108
g1057
sg1087
I0
sbsS'Wait: tau-0'
p1681
(imeasurement.lib.pulsar.pulse
SquarePulse
p1682
(dp1683
g1086
Nsg7
g1223
sg1088
I0
sg1091
I0
sg1092
(lp1684
g1057
asg1101
F2.357e-06
sg1102
F0.0
sg1108
g1057
sg1087
I0
sbsS'Hermite pi-pulse-0'
p1685
(imeasurement.lib.pulsar.pulselib
HermitePulse_Envelope_IQ
p1686
(dp1687
g1086
Nsg1087
F5e-07
sg1088
F1.8570000000000002e-06
sg1089
I01
sg1090
F5e-07
sg1091
F5e-07
sg1092
(lp1688
g1057
ag1066
ag1049
asg1094
I0
sg1095
g1066
sg1096
F1e-08
sg1097
I90
sg1100
F5e-07
sg7
g1220
sg1188
I00
sg1189
F1.633659999999999e-08
sg1099
g1057
sg1101
F1.098e-06
sg1190
F5.49e-07
sg1191
F0.812
sg1102
F1.0
sg1103
g1049
sbssg1113
I4
sg1114
I00
sg1115
g1116
sg1160
I960
sg1161
I0
sb(imeasurement.lib.pulsar.element
Element
p1689
(dp1690
g1046
I01
sg7
g320
sg1047
(dp1691
g1049
(dp1692
g1051
F2.56e-07
sg1052
F2.0
sg1053
g1054
sg1055
I0
sg1056
F0.0
ssg1057
(dp1693
g1051
F2e-07
sg1052
F1.0
sg1053
g1059
sg1055
F-1.0
sg1056
F0.0
ssg1060
(dp1694
g1051
F0.0
sg1052
F2.0
sg1053
g1054
sg1055
I0
sg1056
F0.0
ssg1062
(dp1695
g1051
F4.949999999999999e-07
sg1052
F1.0
sg1053
g1059
sg1055
F-1.0
sg1056
F0.01
ssg1064
(dp1696
g1051
F1.02e-07
sg1052
F2.0
sg1053
g1054
sg1055
I0
sg1056
F0.0
ssg1066
(dp1697
g1051
F2e-07
sg1052
F1.0
sg1053
g1059
sg1055
F-1.0
sg1056
F0.0
ssg1068
(dp1698
g1051
F1.82e-07
sg1052
F2.0
sg1053
g1054
sg1055
I0
sg1056
I0
ssg1070
(dp1699
g1051
F2e-07
sg1052
F0.5
sg1053
g1054
sg1055
F0.0
sg1056
F0.0
ssg1072
(dp1700
g1051
F2.79e-07
sg1052
F2.0
sg1053
g1059
sg1055
F-2.0
sg1056
F0.0
ssg1074
(dp1701
g1051
F0.0
sg1052
F2.0
sg1053
g1054
sg1055
F0.0
sg1056
F0.0
ssg1076
(dp1702
g1051
F2e-07
sg1052
F0.5
sg1053
g1054
sg1055
F0.0
sg1056
F0.0
sssg1078
F1000000000.0
sg1079
S'Wait: tau-1'
p1703
sg1081
(dp1704
g1703
(imeasurement.lib.pulsar.pulse
SquarePulse
p1705
(dp1706
g1086
Nsg7
g1223
sg1088
F2.4550000000000002e-06
sg1091
I0
sg1092
(lp1707
g1057
asg1101
F2.357e-06
sg1102
F0.0
sg1108
g1057
sg1087
I0
sbsS'Wait: tau-0'
p1708
(imeasurement.lib.pulsar.pulse
SquarePulse
p1709
(dp1710
g1086
Nsg7
g1223
sg1088
I0
sg1091
I0
sg1092
(lp1711
g1057
asg1101
F2.357e-06
sg1102
F0.0
sg1108
g1057
sg1087
I0
sbsS'Hermite pi-pulse-0'
p1712
(imeasurement.lib.pulsar.pulselib
HermitePulse_Envelope_IQ
p1713
(dp1714
g1086
Nsg1087
F5e-07
sg1088
F1.8570000000000002e-06
sg1089
I01
sg1090
F5e-07
sg1091
F5e-07
sg1092
(lp1715
g1057
ag1066
ag1049
asg1094
I0
sg1095
g1066
sg1096
F1e-08
sg1097
I0
sg1100
F5e-07
sg7
g1220
sg1188
I00
sg1189
F1.633659999999999e-08
sg1099
g1057
sg1101
F1.098e-06
sg1190
F5.49e-07
sg1191
F0.812
sg1102
F1.0
sg1103
g1049
sbssg1113
I4
sg1114
I00
sg1115
g1116
sg1160
I960
sg1161
I0
sb(imeasurement.lib.pulsar.element
Element
p1716
(dp1717
g1046
I01
sg7
g449
sg1047
(dp1718
g1049
(dp1719
g1051
F2.56e-07
sg1052
F2.0
sg1053
g1054
sg1055
I0
sg1056
F0.0
ssg1057
(dp1720
g1051
F2e-07
sg1052
F1.0
sg1053
g1059
sg1055
F-1.0
sg1056
F0.0
ssg1060
(dp1721
g1051
F0.0
sg1052
F2.0
sg1053
g1054
sg1055
I0
sg1056
F0.0
ssg1062
(dp1722
g1051
F4.949999999999999e-07
sg1052
F1.0
sg1053
g1059
sg1055
F-1.0
sg1056
F0.01
ssg1064
(dp1723
g1051
F1.02e-07
sg1052
F2.0
sg1053
g1054
sg1055
I0
sg1056
F0.0
ssg1066
(dp1724
g1051
F2e-07
sg1052
F1.0
sg1053
g1059
sg1055
F-1.0
sg1056
F0.0
ssg1068
(dp1725
g1051
F1.82e-07
sg1052
F2.0
sg1053
g1054
sg1055
I0
sg1056
I0
ssg1070
(dp1726
g1051
F2e-07
sg1052
F0.5
sg1053
g1054
sg1055
F0.0
sg1056
F0.0
ssg1072
(dp1727
g1051
F2.79e-07
sg1052
F2.0
sg1053
g1059
sg1055
F-2.0
sg1056
F0.0
ssg1074
(dp1728
g1051
F0.0
sg1052
F2.0
sg1053
g1054
sg1055
F0.0
sg1056
F0.0
ssg1076
(dp1729
g1051
F2e-07
sg1052
F0.5
sg1053
g1054
sg1055
F0.0
sg1056
F0.0
sssg1078
F1000000000.0
sg1079
S'delay-0'
p1730
sg1081
(dp1731
S'Wait: tau-0'
p1732
(imeasurement.lib.pulsar.pulse
SquarePulse
p1733
(dp1734
g1086
Nsg7
g1223
sg1088
I0
sg1091
I0
sg1092
(lp1735
g1057
asg1101
F2.357e-06
sg1102
F0.0
sg1108
g1057
sg1087
I0
sbsS'Hermite pi-pulse-0'
p1736
(imeasurement.lib.pulsar.pulselib
HermitePulse_Envelope_IQ
p1737
(dp1738
g1086
Nsg1087
F5e-07
sg1088
F1.8570000000000002e-06
sg1089
I01
sg1090
F5e-07
sg1091
F5e-07
sg1092
(lp1739
g1057
ag1066
ag1049
asg1094
I0
sg1095
g1066
sg1096
F1e-08
sg1097
I270
sg1100
F5e-07
sg7
g1220
sg1188
I00
sg1189
F1.633659999999999e-08
sg1099
g1057
sg1101
F1.098e-06
sg1190
F5.49e-07
sg1191
F0.812
sg1102
F1.0
sg1103
g1049
sbsg1730
(imeasurement.lib.pulsar.pulse
SquarePulse
p1740
(dp1741
g1086
Nsg7
g1051
sg1088
F2.4550000000000002e-06
sg1091
I0
sg1092
(lp1742
g1057
asg1101
F1.3569999999999999e-06
sg1102
F0.0
sg1108
g1057
sg1087
I0
sbssg1113
I4
sg1114
I00
sg1115
g1116
sg1160
I960
sg1161
I0
sb(imeasurement.lib.pulsar.element
Element
p1743
(dp1744
g1046
I01
sg7
g313
sg1047
(dp1745
g1049
(dp1746
g1051
F2.56e-07
sg1052
F2.0
sg1053
g1054
sg1055
I0
sg1056
F0.0
ssg1057
(dp1747
g1051
F2e-07
sg1052
F1.0
sg1053
g1059
sg1055
F-1.0
sg1056
F0.0
ssg1060
(dp1748
g1051
F0.0
sg1052
F2.0
sg1053
g1054
sg1055
I0
sg1056
F0.0
ssg1062
(dp1749
g1051
F4.949999999999999e-07
sg1052
F1.0
sg1053
g1059
sg1055
F-1.0
sg1056
F0.01
ssg1064
(dp1750
g1051
F1.02e-07
sg1052
F2.0
sg1053
g1054
sg1055
I0
sg1056
F0.0
ssg1066
(dp1751
g1051
F2e-07
sg1052
F1.0
sg1053
g1059
sg1055
F-1.0
sg1056
F0.0
ssg1068
(dp1752
g1051
F1.82e-07
sg1052
F2.0
sg1053
g1054
sg1055
I0
sg1056
I0
ssg1070
(dp1753
g1051
F2e-07
sg1052
F0.5
sg1053
g1054
sg1055
F0.0
sg1056
F0.0
ssg1072
(dp1754
g1051
F2.79e-07
sg1052
F2.0
sg1053
g1059
sg1055
F-2.0
sg1056
F0.0
ssg1074
(dp1755
g1051
F0.0
sg1052
F2.0
sg1053
g1054
sg1055
F0.0
sg1056
F0.0
ssg1076
(dp1756
g1051
F2e-07
sg1052
F0.5
sg1053
g1054
sg1055
F0.0
sg1056
F0.0
sssg1078
F1000000000.0
sg1079
S'Wait: tau-0'
p1757
sg1081
(dp1758
g1757
(imeasurement.lib.pulsar.pulse
SquarePulse
p1759
(dp1760
g1086
Nsg7
g1223
sg1088
I0
sg1091
I0
sg1092
(lp1761
g1057
asg1101
F1e-06
sg1102
F0.0
sg1108
g1057
sg1087
I0
sbssg1113
I4
sg1114
I00
sg1115
g1116
sg1160
I960
sg1161
I0
sb(imeasurement.lib.pulsar.element
Element
p1762
(dp1763
g1046
I01
sg7
g453
sg1047
(dp1764
g1049
(dp1765
g1051
F2.56e-07
sg1052
F2.0
sg1053
g1054
sg1055
I0
sg1056
F0.0
ssg1057
(dp1766
g1051
F2e-07
sg1052
F1.0
sg1053
g1059
sg1055
F-1.0
sg1056
F0.0
ssg1060
(dp1767
g1051
F0.0
sg1052
F2.0
sg1053
g1054
sg1055
I0
sg1056
F0.0
ssg1062
(dp1768
g1051
F4.949999999999999e-07
sg1052
F1.0
sg1053
g1059
sg1055
F-1.0
sg1056
F0.01
ssg1064
(dp1769
g1051
F1.02e-07
sg1052
F2.0
sg1053
g1054
sg1055
I0
sg1056
F0.0
ssg1066
(dp1770
g1051
F2e-07
sg1052
F1.0
sg1053
g1059
sg1055
F-1.0
sg1056
F0.0
ssg1068
(dp1771
g1051
F1.82e-07
sg1052
F2.0
sg1053
g1054
sg1055
I0
sg1056
I0
ssg1070
(dp1772
g1051
F2e-07
sg1052
F0.5
sg1053
g1054
sg1055
F0.0
sg1056
F0.0
ssg1072
(dp1773
g1051
F2.79e-07
sg1052
F2.0
sg1053
g1059
sg1055
F-2.0
sg1056
F0.0
ssg1074
(dp1774
g1051
F0.0
sg1052
F2.0
sg1053
g1054
sg1055
F0.0
sg1056
F0.0
ssg1076
(dp1775
g1051
F2e-07
sg1052
F0.5
sg1053
g1054
sg1055
F0.0
sg1056
F0.0
sssg1078
F1000000000.0
sg1079
S'wait fin T-0'
p1776
sg1081
(dp1777
S'wait in T-0'
p1778
(imeasurement.lib.pulsar.pulse
SquarePulse
p1779
(dp1780
g1086
Nsg7
g1181
sg1088
I0
sg1091
I0
sg1092
(lp1781
g1057
asg1101
F9.75e-07
sg1102
F0.0
sg1108
g1057
sg1087
I0
sbsS'Hermite Pi/2-pulse-0'
p1782
(imeasurement.lib.pulsar.pulselib
HermitePulse_Envelope_IQ
p1783
(dp1784
g1086
Nsg1087
F5e-07
sg1088
F4.75e-07
sg1089
I01
sg1090
F5e-07
sg1091
F5e-07
sg1092
(lp1785
g1057
ag1066
ag1049
asg1094
I0
sg1095
g1066
sg1096
F1e-08
sg1097
I90
sg1100
F5e-07
sg7
g1187
sg1188
I01
sg1189
F8.33499999999999e-09
sg1099
g1057
sg1101
F1.05e-06
sg1190
F5.25e-07
sg1191
F0.56
sg1102
F1.0
sg1103
g1049
sbsg1776
(imeasurement.lib.pulsar.pulse
SquarePulse
p1786
(dp1787
g1086
Nsg7
g1194
sg1088
F1.025e-06
sg1091
I0
sg1092
(lp1788
g1057
asg1101
F9.75e-07
sg1102
F0.0
sg1108
g1057
sg1087
I0
sbssg1113
I4
sg1114
I00
sg1115
g1116
sg1160
I960
sg1161
I0
sb(imeasurement.lib.pulsar.element
Element
p1789
(dp1790
g1046
I01
sg7
g455
sg1047
(dp1791
g1049
(dp1792
g1051
F2.56e-07
sg1052
F2.0
sg1053
g1054
sg1055
I0
sg1056
F0.0
ssg1057
(dp1793
g1051
F2e-07
sg1052
F1.0
sg1053
g1059
sg1055
F-1.0
sg1056
F0.0
ssg1060
(dp1794
g1051
F0.0
sg1052
F2.0
sg1053
g1054
sg1055
I0
sg1056
F0.0
ssg1062
(dp1795
g1051
F4.949999999999999e-07
sg1052
F1.0
sg1053
g1059
sg1055
F-1.0
sg1056
F0.01
ssg1064
(dp1796
g1051
F1.02e-07
sg1052
F2.0
sg1053
g1054
sg1055
I0
sg1056
F0.0
ssg1066
(dp1797
g1051
F2e-07
sg1052
F1.0
sg1053
g1059
sg1055
F-1.0
sg1056
F0.0
ssg1068
(dp1798
g1051
F1.82e-07
sg1052
F2.0
sg1053
g1054
sg1055
I0
sg1056
I0
ssg1070
(dp1799
g1051
F2e-07
sg1052
F0.5
sg1053
g1054
sg1055
F0.0
sg1056
F0.0
ssg1072
(dp1800
g1051
F2.79e-07
sg1052
F2.0
sg1053
g1059
sg1055
F-2.0
sg1056
F0.0
ssg1074
(dp1801
g1051
F0.0
sg1052
F2.0
sg1053
g1054
sg1055
F0.0
sg1056
F0.0
ssg1076
(dp1802
g1051
F2e-07
sg1052
F0.5
sg1053
g1054
sg1055
F0.0
sg1056
F0.0
sssg1078
F1000000000.0
sg1079
S'square pulse-0'
p1803
sg1081
(dp1804
g1803
(imeasurement.lib.pulsar.pulse
SquarePulse
p1805
(dp1806
g1086
Nsg7
g1106
sg1088
I0
sg1091
I0
sg1092
(lp1807
g1074
asg1101
F7.999999999999999e-05
sg1102
I2
sg1108
g1074
sg1087
I0
sbssg1113
I4
sg1114
I00
sg1115
g1116
sg1160
I960
sg1161
I0
sb(imeasurement.lib.pulsar.element
Element
p1808
(dp1809
g1046
I01
sg7
g456
sg1047
(dp1810
g1049
(dp1811
g1051
F2.56e-07
sg1052
F2.0
sg1053
g1054
sg1055
I0
sg1056
F0.0
ssg1057
(dp1812
g1051
F2e-07
sg1052
F1.0
sg1053
g1059
sg1055
F-1.0
sg1056
F0.0
ssg1060
(dp1813
g1051
F0.0
sg1052
F2.0
sg1053
g1054
sg1055
I0
sg1056
F0.0
ssg1062
(dp1814
g1051
F4.949999999999999e-07
sg1052
F1.0
sg1053
g1059
sg1055
F-1.0
sg1056
F0.01
ssg1064
(dp1815
g1051
F1.02e-07
sg1052
F2.0
sg1053
g1054
sg1055
I0
sg1056
F0.0
ssg1066
(dp1816
g1051
F2e-07
sg1052
F1.0
sg1053
g1059
sg1055
F-1.0
sg1056
F0.0
ssg1068
(dp1817
g1051
F1.82e-07
sg1052
F2.0
sg1053
g1054
sg1055
I0
sg1056
I0
ssg1070
(dp1818
g1051
F2e-07
sg1052
F0.5
sg1053
g1054
sg1055
F0.0
sg1056
F0.0
ssg1072
(dp1819
g1051
F2.79e-07
sg1052
F2.0
sg1053
g1059
sg1055
F-2.0
sg1056
F0.0
ssg1074
(dp1820
g1051
F0.0
sg1052
F2.0
sg1053
g1054
sg1055
F0.0
sg1056
F0.0
ssg1076
(dp1821
g1051
F2e-07
sg1052
F0.5
sg1053
g1054
sg1055
F0.0
sg1056
F0.0
sssg1078
F1000000000.0
sg1079
S'wait fin T-0'
p1822
sg1081
(dp1823
S'wait in T-0'
p1824
(imeasurement.lib.pulsar.pulse
SquarePulse
p1825
(dp1826
g1086
Nsg7
g1181
sg1088
I0
sg1091
I0
sg1092
(lp1827
g1057
asg1101
F1.088e-06
sg1102
F0.0
sg1108
g1057
sg1087
I0
sbsS'Hermite Pi/2-pulse-0'
p1828
(imeasurement.lib.pulsar.pulselib
HermitePulse_Envelope_IQ
p1829
(dp1830
g1086
Nsg1087
F5e-07
sg1088
F5.88e-07
sg1089
I01
sg1090
F5e-07
sg1091
F5e-07
sg1092
(lp1831
g1057
ag1066
ag1049
asg1094
I0
sg1095
g1066
sg1096
F1e-08
sg1097
I0
sg1100
F5e-07
sg7
g1187
sg1188
I01
sg1189
F8.33499999999999e-09
sg1099
g1057
sg1101
F1.05e-06
sg1190
F5.25e-07
sg1191
F0.56
sg1102
F1.0
sg1103
g1049
sbsg1822
(imeasurement.lib.pulsar.pulse
SquarePulse
p1832
(dp1833
g1086
Nsg7
g1194
sg1088
F1.138e-06
sg1091
I0
sg1092
(lp1834
g1057
asg1101
F9.75e-07
sg1102
F0.0
sg1108
g1057
sg1087
I0
sbssg1113
I4
sg1114
I00
sg1115
g1116
sg1160
I960
sg1161
I0
sb(imeasurement.lib.pulsar.element
Element
p1835
(dp1836
g1046
I01
sg7
g459
sg1047
(dp1837
g1049
(dp1838
g1051
F2.56e-07
sg1052
F2.0
sg1053
g1054
sg1055
I0
sg1056
F0.0
ssg1057
(dp1839
g1051
F2e-07
sg1052
F1.0
sg1053
g1059
sg1055
F-1.0
sg1056
F0.0
ssg1060
(dp1840
g1051
F0.0
sg1052
F2.0
sg1053
g1054
sg1055
I0
sg1056
F0.0
ssg1062
(dp1841
g1051
F4.949999999999999e-07
sg1052
F1.0
sg1053
g1059
sg1055
F-1.0
sg1056
F0.01
ssg1064
(dp1842
g1051
F1.02e-07
sg1052
F2.0
sg1053
g1054
sg1055
I0
sg1056
F0.0
ssg1066
(dp1843
g1051
F2e-07
sg1052
F1.0
sg1053
g1059
sg1055
F-1.0
sg1056
F0.0
ssg1068
(dp1844
g1051
F1.82e-07
sg1052
F2.0
sg1053
g1054
sg1055
I0
sg1056
I0
ssg1070
(dp1845
g1051
F2e-07
sg1052
F0.5
sg1053
g1054
sg1055
F0.0
sg1056
F0.0
ssg1072
(dp1846
g1051
F2.79e-07
sg1052
F2.0
sg1053
g1059
sg1055
F-2.0
sg1056
F0.0
ssg1074
(dp1847
g1051
F0.0
sg1052
F2.0
sg1053
g1054
sg1055
F0.0
sg1056
F0.0
ssg1076
(dp1848
g1051
F2e-07
sg1052
F0.5
sg1053
g1054
sg1055
F0.0
sg1056
F0.0
sssg1078
F1000000000.0
sg1079
S'Wait: tau-0'
p1849
sg1081
(dp1850
S'delay-0'
p1851
(imeasurement.lib.pulsar.pulse
SquarePulse
p1852
(dp1853
g1086
Nsg7
g1051
sg1088
I0
sg1091
I0
sg1092
(lp1854
g1057
asg1101
F1.3569999999999999e-06
sg1102
F0.0
sg1108
g1057
sg1087
I0
sbsS'Hermite pi-pulse-0'
p1855
(imeasurement.lib.pulsar.pulselib
HermitePulse_Envelope_IQ
p1856
(dp1857
g1086
Nsg1087
F5e-07
sg1088
F8.569999999999999e-07
sg1089
I01
sg1090
F5e-07
sg1091
F5e-07
sg1092
(lp1858
g1057
ag1066
ag1049
asg1094
I0
sg1095
g1066
sg1096
F1e-08
sg1097
I90
sg1100
F5e-07
sg7
g1220
sg1188
I00
sg1189
F1.633659999999999e-08
sg1099
g1057
sg1101
F1.098e-06
sg1190
F5.49e-07
sg1191
F0.812
sg1102
F1.0
sg1103
g1049
sbsg1849
(imeasurement.lib.pulsar.pulse
SquarePulse
p1859
(dp1860
g1086
Nsg7
g1223
sg1088
F1.455e-06
sg1091
I0
sg1092
(lp1861
g1057
asg1101
F2.357e-06
sg1102
F0.0
sg1108
g1057
sg1087
I0
sbssg1113
I4
sg1114
I00
sg1115
g1116
sg1160
I960
sg1161
I0
sb(imeasurement.lib.pulsar.element
Element
p1862
(dp1863
g1046
I01
sg7
g472
sg1047
(dp1864
g1049
(dp1865
g1051
F2.56e-07
sg1052
F2.0
sg1053
g1054
sg1055
I0
sg1056
F0.0
ssg1057
(dp1866
g1051
F2e-07
sg1052
F1.0
sg1053
g1059
sg1055
F-1.0
sg1056
F0.0
ssg1060
(dp1867
g1051
F0.0
sg1052
F2.0
sg1053
g1054
sg1055
I0
sg1056
F0.0
ssg1062
(dp1868
g1051
F4.949999999999999e-07
sg1052
F1.0
sg1053
g1059
sg1055
F-1.0
sg1056
F0.01
ssg1064
(dp1869
g1051
F1.02e-07
sg1052
F2.0
sg1053
g1054
sg1055
I0
sg1056
F0.0
ssg1066
(dp1870
g1051
F2e-07
sg1052
F1.0
sg1053
g1059
sg1055
F-1.0
sg1056
F0.0
ssg1068
(dp1871
g1051
F1.82e-07
sg1052
F2.0
sg1053
g1054
sg1055
I0
sg1056
I0
ssg1070
(dp1872
g1051
F2e-07
sg1052
F0.5
sg1053
g1054
sg1055
F0.0
sg1056
F0.0
ssg1072
(dp1873
g1051
F2.79e-07
sg1052
F2.0
sg1053
g1059
sg1055
F-2.0
sg1056
F0.0
ssg1074
(dp1874
g1051
F0.0
sg1052
F2.0
sg1053
g1054
sg1055
F0.0
sg1056
F0.0
ssg1076
(dp1875
g1051
F2e-07
sg1052
F0.5
sg1053
g1054
sg1055
F0.0
sg1056
F0.0
sssg1078
F1000000000.0
sg1079
S'Wait: tau-1'
p1876
sg1081
(dp1877
g1876
(imeasurement.lib.pulsar.pulse
SquarePulse
p1878
(dp1879
g1086
Nsg7
g1223
sg1088
F2.4550000000000002e-06
sg1091
I0
sg1092
(lp1880
g1057
asg1101
F2.357e-06
sg1102
F0.0
sg1108
g1057
sg1087
I0
sbsS'Wait: tau-0'
p1881
(imeasurement.lib.pulsar.pulse
SquarePulse
p1882
(dp1883
g1086
Nsg7
g1223
sg1088
I0
sg1091
I0
sg1092
(lp1884
g1057
asg1101
F2.357e-06
sg1102
F0.0
sg1108
g1057
sg1087
I0
sbsS'Hermite pi-pulse-0'
p1885
(imeasurement.lib.pulsar.pulselib
HermitePulse_Envelope_IQ
p1886
(dp1887
g1086
Nsg1087
F5e-07
sg1088
F1.8570000000000002e-06
sg1089
I01
sg1090
F5e-07
sg1091
F5e-07
sg1092
(lp1888
g1057
ag1066
ag1049
asg1094
I0
sg1095
g1066
sg1096
F1e-08
sg1097
I90
sg1100
F5e-07
sg7
g1220
sg1188
I00
sg1189
F1.633659999999999e-08
sg1099
g1057
sg1101
F1.098e-06
sg1190
F5.49e-07
sg1191
F0.812
sg1102
F1.0
sg1103
g1049
sbssg1113
I4
sg1114
I00
sg1115
g1116
sg1160
I960
sg1161
I0
sb(imeasurement.lib.pulsar.element
Element
p1889
(dp1890
g1046
I01
sg7
g467
sg1047
(dp1891
g1049
(dp1892
g1051
F2.56e-07
sg1052
F2.0
sg1053
g1054
sg1055
I0
sg1056
F0.0
ssg1057
(dp1893
g1051
F2e-07
sg1052
F1.0
sg1053
g1059
sg1055
F-1.0
sg1056
F0.0
ssg1060
(dp1894
g1051
F0.0
sg1052
F2.0
sg1053
g1054
sg1055
I0
sg1056
F0.0
ssg1062
(dp1895
g1051
F4.949999999999999e-07
sg1052
F1.0
sg1053
g1059
sg1055
F-1.0
sg1056
F0.01
ssg1064
(dp1896
g1051
F1.02e-07
sg1052
F2.0
sg1053
g1054
sg1055
I0
sg1056
F0.0
ssg1066
(dp1897
g1051
F2e-07
sg1052
F1.0
sg1053
g1059
sg1055
F-1.0
sg1056
F0.0
ssg1068
(dp1898
g1051
F1.82e-07
sg1052
F2.0
sg1053
g1054
sg1055
I0
sg1056
I0
ssg1070
(dp1899
g1051
F2e-07
sg1052
F0.5
sg1053
g1054
sg1055
F0.0
sg1056
F0.0
ssg1072
(dp1900
g1051
F2.79e-07
sg1052
F2.0
sg1053
g1059
sg1055
F-2.0
sg1056
F0.0
ssg1074
(dp1901
g1051
F0.0
sg1052
F2.0
sg1053
g1054
sg1055
F0.0
sg1056
F0.0
ssg1076
(dp1902
g1051
F2e-07
sg1052
F0.5
sg1053
g1054
sg1055
F0.0
sg1056
F0.0
sssg1078
F1000000000.0
sg1079
S'Wait: tau-1'
p1903
sg1081
(dp1904
g1903
(imeasurement.lib.pulsar.pulse
SquarePulse
p1905
(dp1906
g1086
Nsg7
g1223
sg1088
F2.4550000000000002e-06
sg1091
I0
sg1092
(lp1907
g1057
asg1101
F2.357e-06
sg1102
F0.0
sg1108
g1057
sg1087
I0
sbsS'Wait: tau-0'
p1908
(imeasurement.lib.pulsar.pulse
SquarePulse
p1909
(dp1910
g1086
Nsg7
g1223
sg1088
I0
sg1091
I0
sg1092
(lp1911
g1057
asg1101
F2.357e-06
sg1102
F0.0
sg1108
g1057
sg1087
I0
sbsS'Hermite pi-pulse-0'
p1912
(imeasurement.lib.pulsar.pulselib
HermitePulse_Envelope_IQ
p1913
(dp1914
g1086
Nsg1087
F5e-07
sg1088
F1.8570000000000002e-06
sg1089
I01
sg1090
F5e-07
sg1091
F5e-07
sg1092
(lp1915
g1057
ag1066
ag1049
asg1094
I0
sg1095
g1066
sg1096
F1e-08
sg1097
I0
sg1100
F5e-07
sg7
g1220
sg1188
I00
sg1189
F1.633659999999999e-08
sg1099
g1057
sg1101
F1.098e-06
sg1190
F5.49e-07
sg1191
F0.812
sg1102
F1.0
sg1103
g1049
sbssg1113
I4
sg1114
I00
sg1115
g1116
sg1160
I960
sg1161
I0
sb(imeasurement.lib.pulsar.element
Element
p1916
(dp1917
g1046
I01
sg7
g596
sg1047
(dp1918
g1049
(dp1919
g1051
F2.56e-07
sg1052
F2.0
sg1053
g1054
sg1055
I0
sg1056
F0.0
ssg1057
(dp1920
g1051
F2e-07
sg1052
F1.0
sg1053
g1059
sg1055
F-1.0
sg1056
F0.0
ssg1060
(dp1921
g1051
F0.0
sg1052
F2.0
sg1053
g1054
sg1055
I0
sg1056
F0.0
ssg1062
(dp1922
g1051
F4.949999999999999e-07
sg1052
F1.0
sg1053
g1059
sg1055
F-1.0
sg1056
F0.01
ssg1064
(dp1923
g1051
F1.02e-07
sg1052
F2.0
sg1053
g1054
sg1055
I0
sg1056
F0.0
ssg1066
(dp1924
g1051
F2e-07
sg1052
F1.0
sg1053
g1059
sg1055
F-1.0
sg1056
F0.0
ssg1068
(dp1925
g1051
F1.82e-07
sg1052
F2.0
sg1053
g1054
sg1055
I0
sg1056
I0
ssg1070
(dp1926
g1051
F2e-07
sg1052
F0.5
sg1053
g1054
sg1055
F0.0
sg1056
F0.0
ssg1072
(dp1927
g1051
F2.79e-07
sg1052
F2.0
sg1053
g1059
sg1055
F-2.0
sg1056
F0.0
ssg1074
(dp1928
g1051
F0.0
sg1052
F2.0
sg1053
g1054
sg1055
F0.0
sg1056
F0.0
ssg1076
(dp1929
g1051
F2e-07
sg1052
F0.5
sg1053
g1054
sg1055
F0.0
sg1056
F0.0
sssg1078
F1000000000.0
sg1079
S'delay-0'
p1930
sg1081
(dp1931
S'Wait: tau-0'
p1932
(imeasurement.lib.pulsar.pulse
SquarePulse
p1933
(dp1934
g1086
Nsg7
g1223
sg1088
I0
sg1091
I0
sg1092
(lp1935
g1057
asg1101
F2.357e-06
sg1102
F0.0
sg1108
g1057
sg1087
I0
sbsS'Hermite pi-pulse-0'
p1936
(imeasurement.lib.pulsar.pulselib
HermitePulse_Envelope_IQ
p1937
(dp1938
g1086
Nsg1087
F5e-07
sg1088
F1.8570000000000002e-06
sg1089
I01
sg1090
F5e-07
sg1091
F5e-07
sg1092
(lp1939
g1057
ag1066
ag1049
asg1094
I0
sg1095
g1066
sg1096
F1e-08
sg1097
I270
sg1100
F5e-07
sg7
g1220
sg1188
I00
sg1189
F1.633659999999999e-08
sg1099
g1057
sg1101
F1.098e-06
sg1190
F5.49e-07
sg1191
F0.812
sg1102
F1.0
sg1103
g1049
sbsg1930
(imeasurement.lib.pulsar.pulse
SquarePulse
p1940
(dp1941
g1086
Nsg7
g1051
sg1088
F2.4550000000000002e-06
sg1091
I0
sg1092
(lp1942
g1057
asg1101
F1.3569999999999999e-06
sg1102
F0.0
sg1108
g1057
sg1087
I0
sbssg1113
I4
sg1114
I00
sg1115
g1116
sg1160
I960
sg1161
I0
sb(imeasurement.lib.pulsar.element
Element
p1943
(dp1944
g1046
I01
sg7
g460
sg1047
(dp1945
g1049
(dp1946
g1051
F2.56e-07
sg1052
F2.0
sg1053
g1054
sg1055
I0
sg1056
F0.0
ssg1057
(dp1947
g1051
F2e-07
sg1052
F1.0
sg1053
g1059
sg1055
F-1.0
sg1056
F0.0
ssg1060
(dp1948
g1051
F0.0
sg1052
F2.0
sg1053
g1054
sg1055
I0
sg1056
F0.0
ssg1062
(dp1949
g1051
F4.949999999999999e-07
sg1052
F1.0
sg1053
g1059
sg1055
F-1.0
sg1056
F0.01
ssg1064
(dp1950
g1051
F1.02e-07
sg1052
F2.0
sg1053
g1054
sg1055
I0
sg1056
F0.0
ssg1066
(dp1951
g1051
F2e-07
sg1052
F1.0
sg1053
g1059
sg1055
F-1.0
sg1056
F0.0
ssg1068
(dp1952
g1051
F1.82e-07
sg1052
F2.0
sg1053
g1054
sg1055
I0
sg1056
I0
ssg1070
(dp1953
g1051
F2e-07
sg1052
F0.5
sg1053
g1054
sg1055
F0.0
sg1056
F0.0
ssg1072
(dp1954
g1051
F2.79e-07
sg1052
F2.0
sg1053
g1059
sg1055
F-2.0
sg1056
F0.0
ssg1074
(dp1955
g1051
F0.0
sg1052
F2.0
sg1053
g1054
sg1055
F0.0
sg1056
F0.0
ssg1076
(dp1956
g1051
F2e-07
sg1052
F0.5
sg1053
g1054
sg1055
F0.0
sg1056
F0.0
sssg1078
F1000000000.0
sg1079
S'Wait: tau-0'
p1957
sg1081
(dp1958
g1957
(imeasurement.lib.pulsar.pulse
SquarePulse
p1959
(dp1960
g1086
Nsg7
g1223
sg1088
I0
sg1091
I0
sg1092
(lp1961
g1057
asg1101
F1e-06
sg1102
F0.0
sg1108
g1057
sg1087
I0
sbssg1113
I4
sg1114
I00
sg1115
g1116
sg1160
I960
sg1161
I0
sb(imeasurement.lib.pulsar.element
Element
p1962
(dp1963
g1046
I01
sg7
g600
sg1047
(dp1964
g1049
(dp1965
g1051
F2.56e-07
sg1052
F2.0
sg1053
g1054
sg1055
I0
sg1056
F0.0
ssg1057
(dp1966
g1051
F2e-07
sg1052
F1.0
sg1053
g1059
sg1055
F-1.0
sg1056
F0.0
ssg1060
(dp1967
g1051
F0.0
sg1052
F2.0
sg1053
g1054
sg1055
I0
sg1056
F0.0
ssg1062
(dp1968
g1051
F4.949999999999999e-07
sg1052
F1.0
sg1053
g1059
sg1055
F-1.0
sg1056
F0.01
ssg1064
(dp1969
g1051
F1.02e-07
sg1052
F2.0
sg1053
g1054
sg1055
I0
sg1056
F0.0
ssg1066
(dp1970
g1051
F2e-07
sg1052
F1.0
sg1053
g1059
sg1055
F-1.0
sg1056
F0.0
ssg1068
(dp1971
g1051
F1.82e-07
sg1052
F2.0
sg1053
g1054
sg1055
I0
sg1056
I0
ssg1070
(dp1972
g1051
F2e-07
sg1052
F0.5
sg1053
g1054
sg1055
F0.0
sg1056
F0.0
ssg1072
(dp1973
g1051
F2.79e-07
sg1052
F2.0
sg1053
g1059
sg1055
F-2.0
sg1056
F0.0
ssg1074
(dp1974
g1051
F0.0
sg1052
F2.0
sg1053
g1054
sg1055
F0.0
sg1056
F0.0
ssg1076
(dp1975
g1051
F2e-07
sg1052
F0.5
sg1053
g1054
sg1055
F0.0
sg1056
F0.0
sssg1078
F1000000000.0
sg1079
S'wait fin T-0'
p1976
sg1081
(dp1977
S'wait in T-0'
p1978
(imeasurement.lib.pulsar.pulse
SquarePulse
p1979
(dp1980
g1086
Nsg7
g1181
sg1088
I0
sg1091
I0
sg1092
(lp1981
g1057
asg1101
F9.75e-07
sg1102
F0.0
sg1108
g1057
sg1087
I0
sbsS'Hermite Pi/2-pulse-0'
p1982
(imeasurement.lib.pulsar.pulselib
HermitePulse_Envelope_IQ
p1983
(dp1984
g1086
Nsg1087
F5e-07
sg1088
F4.75e-07
sg1089
I01
sg1090
F5e-07
sg1091
F5e-07
sg1092
(lp1985
g1057
ag1066
ag1049
asg1094
I0
sg1095
g1066
sg1096
F1e-08
sg1097
g1549
(g1553
S'Z\x00\x00\x00'
p1986
tp1987
Rp1988
sg1100
F5e-07
sg7
g1187
sg1188
I01
sg1189
F8.33499999999999e-09
sg1099
g1057
sg1101
F1.05e-06
sg1190
F5.25e-07
sg1191
F0.56
sg1102
F1.0
sg1103
g1049
sbsg1976
(imeasurement.lib.pulsar.pulse
SquarePulse
p1989
(dp1990
g1086
Nsg7
g1194
sg1088
F1.025e-06
sg1091
I0
sg1092
(lp1991
g1057
asg1101
F9.75e-07
sg1102
F0.0
sg1108
g1057
sg1087
I0
sbssg1113
I4
sg1114
I00
sg1115
g1116
sg1160
I960
sg1161
I0
sb(imeasurement.lib.pulsar.element
Element
p1992
(dp1993
g1046
I01
sg7
g602
sg1047
(dp1994
g1049
(dp1995
g1051
F2.56e-07
sg1052
F2.0
sg1053
g1054
sg1055
I0
sg1056
F0.0
ssg1057
(dp1996
g1051
F2e-07
sg1052
F1.0
sg1053
g1059
sg1055
F-1.0
sg1056
F0.0
ssg1060
(dp1997
g1051
F0.0
sg1052
F2.0
sg1053
g1054
sg1055
I0
sg1056
F0.0
ssg1062
(dp1998
g1051
F4.949999999999999e-07
sg1052
F1.0
sg1053
g1059
sg1055
F-1.0
sg1056
F0.01
ssg1064
(dp1999
g1051
F1.02e-07
sg1052
F2.0
sg1053
g1054
sg1055
I0
sg1056
F0.0
ssg1066
(dp2000
g1051
F2e-07
sg1052
F1.0
sg1053
g1059
sg1055
F-1.0
sg1056
F0.0
ssg1068
(dp2001
g1051
F1.82e-07
sg1052
F2.0
sg1053
g1054
sg1055
I0
sg1056
I0
ssg1070
(dp2002
g1051
F2e-07
sg1052
F0.5
sg1053
g1054
sg1055
F0.0
sg1056
F0.0
ssg1072
(dp2003
g1051
F2.79e-07
sg1052
F2.0
sg1053
g1059
sg1055
F-2.0
sg1056
F0.0
ssg1074
(dp2004
g1051
F0.0
sg1052
F2.0
sg1053
g1054
sg1055
F0.0
sg1056
F0.0
ssg1076
(dp2005
g1051
F2e-07
sg1052
F0.5
sg1053
g1054
sg1055
F0.0
sg1056
F0.0
sssg1078
F1000000000.0
sg1079
S'square pulse-0'
p2006
sg1081
(dp2007
g2006
(imeasurement.lib.pulsar.pulse
SquarePulse
p2008
(dp2009
g1086
Nsg7
g1106
sg1088
I0
sg1091
I0
sg1092
(lp2010
g1074
asg1101
F1e-05
sg1102
I2
sg1108
g1074
sg1087
I0
sbssg1113
I4
sg1114
I00
sg1115
g1116
sg1160
I960
sg1161
I0
sb(imeasurement.lib.pulsar.element
Element
p2011
(dp2012
g1046
I00
sg7
g604
sg1047
(dp2013
g1049
(dp2014
g1051
F2.56e-07
sg1052
F2.0
sg1053
g1054
sg1055
I0
sg1056
F0.0
ssg1057
(dp2015
g1051
F2e-07
sg1052
F1.0
sg1053
g1059
sg1055
F-1.0
sg1056
F0.0
ssg1060
(dp2016
g1051
F0.0
sg1052
F2.0
sg1053
g1054
sg1055
I0
sg1056
F0.0
ssg1062
(dp2017
g1051
F4.949999999999999e-07
sg1052
F1.0
sg1053
g1059
sg1055
F-1.0
sg1056
F0.01
ssg1064
(dp2018
g1051
F1.02e-07
sg1052
F2.0
sg1053
g1054
sg1055
I0
sg1056
F0.0
ssg1066
(dp2019
g1051
F2e-07
sg1052
F1.0
sg1053
g1059
sg1055
F-1.0
sg1056
F0.0
ssg1068
(dp2020
g1051
F1.82e-07
sg1052
F2.0
sg1053
g1054
sg1055
I0
sg1056
I0
ssg1070
(dp2021
g1051
F2e-07
sg1052
F0.5
sg1053
g1054
sg1055
F0.0
sg1056
F0.0
ssg1072
(dp2022
g1051
F2.79e-07
sg1052
F2.0
sg1053
g1059
sg1055
F-2.0
sg1056
F0.0
ssg1074
(dp2023
g1051
F0.0
sg1052
F2.0
sg1053
g1054
sg1055
F0.0
sg1056
F0.0
ssg1076
(dp2024
g1051
F2e-07
sg1052
F0.5
sg1053
g1054
sg1055
F0.0
sg1056
F0.0
sssg1078
F1000000000.0
sg1079
S'square pulse-1'
p2025
sg1081
(dp2026
S'MBI MW pulse-0'
p2027
(imeasurement.lib.pulsar.pulselib
MW_IQmod_pulse
p2028
(dp2029
g1086
Nsg1087
F5e-07
sg1088
F-4e-07
sg1089
I01
sg1090
F5e-07
sg1091
F5e-07
sg1092
(lp2030
g1057
ag1066
ag1049
asg1094
I0
sg1095
g1066
sg1096
F1e-08
sg1097
F0.0
sg7
g1098
sg1099
g1057
sg1100
F5e-07
sg1101
F3e-06
sg1102
F0.0
sg1103
g1049
sbsg2025
(imeasurement.lib.pulsar.pulse
SquarePulse
p2031
(dp2032
g1086
Nsg7
g1106
sg1088
F2.1000000000000002e-06
sg1091
I0
sg1092
(lp2033
g1074
asg1101
F2.7000000000000002e-05
sg1102
I2
sg1108
g1074
sg1087
I0
sbsS'square pulse-0'
p2034
(imeasurement.lib.pulsar.pulse
SquarePulse
p2035
(dp2036
g1086
Nsg7
g1106
sg1088
I0
sg1091
I0
sg1092
(lp2037
g1049
asg1101
F1e-07
sg1102
I0
sg1108
g1049
sg1087
I0
sbssg1113
I4
sg1114
I00
sg1115
g1116
sg1160
I960
sg1161
I0
sb(imeasurement.lib.pulsar.element
Element
p2038
(dp2039
g1046
I01
sg7
g605
sg1047
(dp2040
g1049
(dp2041
g1051
F2.56e-07
sg1052
F2.0
sg1053
g1054
sg1055
I0
sg1056
F0.0
ssg1057
(dp2042
g1051
F2e-07
sg1052
F1.0
sg1053
g1059
sg1055
F-1.0
sg1056
F0.0
ssg1060
(dp2043
g1051
F0.0
sg1052
F2.0
sg1053
g1054
sg1055
I0
sg1056
F0.0
ssg1062
(dp2044
g1051
F4.949999999999999e-07
sg1052
F1.0
sg1053
g1059
sg1055
F-1.0
sg1056
F0.01
ssg1064
(dp2045
g1051
F1.02e-07
sg1052
F2.0
sg1053
g1054
sg1055
I0
sg1056
F0.0
ssg1066
(dp2046
g1051
F2e-07
sg1052
F1.0
sg1053
g1059
sg1055
F-1.0
sg1056
F0.0
ssg1068
(dp2047
g1051
F1.82e-07
sg1052
F2.0
sg1053
g1054
sg1055
I0
sg1056
I0
ssg1070
(dp2048
g1051
F2e-07
sg1052
F0.5
sg1053
g1054
sg1055
F0.0
sg1056
F0.0
ssg1072
(dp2049
g1051
F2.79e-07
sg1052
F2.0
sg1053
g1059
sg1055
F-2.0
sg1056
F0.0
ssg1074
(dp2050
g1051
F0.0
sg1052
F2.0
sg1053
g1054
sg1055
F0.0
sg1056
F0.0
ssg1076
(dp2051
g1051
F2e-07
sg1052
F0.5
sg1053
g1054
sg1055
F0.0
sg1056
F0.0
sssg1078
F1000000000.0
sg1079
S'wait fin T-0'
p2052
sg1081
(dp2053
S'wait in T-0'
p2054
(imeasurement.lib.pulsar.pulse
SquarePulse
p2055
(dp2056
g1086
Nsg7
g1181
sg1088
I0
sg1091
I0
sg1092
(lp2057
g1057
asg1101
F9.75e-07
sg1102
F0.0
sg1108
g1057
sg1087
I0
sbsS'Hermite Pi/2-pulse-0'
p2058
(imeasurement.lib.pulsar.pulselib
HermitePulse_Envelope_IQ
p2059
(dp2060
g1086
Nsg1087
F5e-07
sg1088
F4.75e-07
sg1089
I01
sg1090
F5e-07
sg1091
F5e-07
sg1092
(lp2061
g1057
ag1066
ag1049
asg1094
I0
sg1095
g1066
sg1096
F1e-08
sg1097
I0
sg1100
F5e-07
sg7
g1187
sg1188
I01
sg1189
F8.33499999999999e-09
sg1099
g1057
sg1101
F1.05e-06
sg1190
F5.25e-07
sg1191
F0.56
sg1102
F1.0
sg1103
g1049
sbsg2052
(imeasurement.lib.pulsar.pulse
SquarePulse
p2062
(dp2063
g1086
Nsg7
g1194
sg1088
F1.025e-06
sg1091
I0
sg1092
(lp2064
g1057
asg1101
F9.75e-07
sg1102
F0.0
sg1108
g1057
sg1087
I0
sbssg1113
I4
sg1114
I00
sg1115
g1116
sg1160
I960
sg1161
I0
sb(imeasurement.lib.pulsar.element
Element
p2065
(dp2066
g1046
I01
sg7
g608
sg1047
(dp2067
g1049
(dp2068
g1051
F2.56e-07
sg1052
F2.0
sg1053
g1054
sg1055
I0
sg1056
F0.0
ssg1057
(dp2069
g1051
F2e-07
sg1052
F1.0
sg1053
g1059
sg1055
F-1.0
sg1056
F0.0
ssg1060
(dp2070
g1051
F0.0
sg1052
F2.0
sg1053
g1054
sg1055
I0
sg1056
F0.0
ssg1062
(dp2071
g1051
F4.949999999999999e-07
sg1052
F1.0
sg1053
g1059
sg1055
F-1.0
sg1056
F0.01
ssg1064
(dp2072
g1051
F1.02e-07
sg1052
F2.0
sg1053
g1054
sg1055
I0
sg1056
F0.0
ssg1066
(dp2073
g1051
F2e-07
sg1052
F1.0
sg1053
g1059
sg1055
F-1.0
sg1056
F0.0
ssg1068
(dp2074
g1051
F1.82e-07
sg1052
F2.0
sg1053
g1054
sg1055
I0
sg1056
I0
ssg1070
(dp2075
g1051
F2e-07
sg1052
F0.5
sg1053
g1054
sg1055
F0.0
sg1056
F0.0
ssg1072
(dp2076
g1051
F2.79e-07
sg1052
F2.0
sg1053
g1059
sg1055
F-2.0
sg1056
F0.0
ssg1074
(dp2077
g1051
F0.0
sg1052
F2.0
sg1053
g1054
sg1055
F0.0
sg1056
F0.0
ssg1076
(dp2078
g1051
F2e-07
sg1052
F0.5
sg1053
g1054
sg1055
F0.0
sg1056
F0.0
sssg1078
F1000000000.0
sg1079
S'Wait: tau-0'
p2079
sg1081
(dp2080
S'delay-0'
p2081
(imeasurement.lib.pulsar.pulse
SquarePulse
p2082
(dp2083
g1086
Nsg7
g1051
sg1088
I0
sg1091
I0
sg1092
(lp2084
g1057
asg1101
F1.3569999999999999e-06
sg1102
F0.0
sg1108
g1057
sg1087
I0
sbsS'Hermite pi-pulse-0'
p2085
(imeasurement.lib.pulsar.pulselib
HermitePulse_Envelope_IQ
p2086
(dp2087
g1086
Nsg1087
F5e-07
sg1088
F8.569999999999999e-07
sg1089
I01
sg1090
F5e-07
sg1091
F5e-07
sg1092
(lp2088
g1057
ag1066
ag1049
asg1094
I0
sg1095
g1066
sg1096
F1e-08
sg1097
I90
sg1100
F5e-07
sg7
g1220
sg1188
I00
sg1189
F1.633659999999999e-08
sg1099
g1057
sg1101
F1.098e-06
sg1190
F5.49e-07
sg1191
F0.812
sg1102
F1.0
sg1103
g1049
sbsg2079
(imeasurement.lib.pulsar.pulse
SquarePulse
p2089
(dp2090
g1086
Nsg7
g1223
sg1088
F1.455e-06
sg1091
I0
sg1092
(lp2091
g1057
asg1101
F2.357e-06
sg1102
F0.0
sg1108
g1057
sg1087
I0
sbssg1113
I4
sg1114
I00
sg1115
g1116
sg1160
I960
sg1161
I0
sb(imeasurement.lib.pulsar.element
Element
p2092
(dp2093
g1046
I01
sg7
g621
sg1047
(dp2094
g1049
(dp2095
g1051
F2.56e-07
sg1052
F2.0
sg1053
g1054
sg1055
I0
sg1056
F0.0
ssg1057
(dp2096
g1051
F2e-07
sg1052
F1.0
sg1053
g1059
sg1055
F-1.0
sg1056
F0.0
ssg1060
(dp2097
g1051
F0.0
sg1052
F2.0
sg1053
g1054
sg1055
I0
sg1056
F0.0
ssg1062
(dp2098
g1051
F4.949999999999999e-07
sg1052
F1.0
sg1053
g1059
sg1055
F-1.0
sg1056
F0.01
ssg1064
(dp2099
g1051
F1.02e-07
sg1052
F2.0
sg1053
g1054
sg1055
I0
sg1056
F0.0
ssg1066
(dp2100
g1051
F2e-07
sg1052
F1.0
sg1053
g1059
sg1055
F-1.0
sg1056
F0.0
ssg1068
(dp2101
g1051
F1.82e-07
sg1052
F2.0
sg1053
g1054
sg1055
I0
sg1056
I0
ssg1070
(dp2102
g1051
F2e-07
sg1052
F0.5
sg1053
g1054
sg1055
F0.0
sg1056
F0.0
ssg1072
(dp2103
g1051
F2.79e-07
sg1052
F2.0
sg1053
g1059
sg1055
F-2.0
sg1056
F0.0
ssg1074
(dp2104
g1051
F0.0
sg1052
F2.0
sg1053
g1054
sg1055
F0.0
sg1056
F0.0
ssg1076
(dp2105
g1051
F2e-07
sg1052
F0.5
sg1053
g1054
sg1055
F0.0
sg1056
F0.0
sssg1078
F1000000000.0
sg1079
S'Wait: tau-1'
p2106
sg1081
(dp2107
g2106
(imeasurement.lib.pulsar.pulse
SquarePulse
p2108
(dp2109
g1086
Nsg7
g1223
sg1088
F2.4550000000000002e-06
sg1091
I0
sg1092
(lp2110
g1057
asg1101
F2.357e-06
sg1102
F0.0
sg1108
g1057
sg1087
I0
sbsS'Wait: tau-0'
p2111
(imeasurement.lib.pulsar.pulse
SquarePulse
p2112
(dp2113
g1086
Nsg7
g1223
sg1088
I0
sg1091
I0
sg1092
(lp2114
g1057
asg1101
F2.357e-06
sg1102
F0.0
sg1108
g1057
sg1087
I0
sbsS'Hermite pi-pulse-0'
p2115
(imeasurement.lib.pulsar.pulselib
HermitePulse_Envelope_IQ
p2116
(dp2117
g1086
Nsg1087
F5e-07
sg1088
F1.8570000000000002e-06
sg1089
I01
sg1090
F5e-07
sg1091
F5e-07
sg1092
(lp2118
g1057
ag1066
ag1049
asg1094
I0
sg1095
g1066
sg1096
F1e-08
sg1097
I90
sg1100
F5e-07
sg7
g1220
sg1188
I00
sg1189
F1.633659999999999e-08
sg1099
g1057
sg1101
F1.098e-06
sg1190
F5.49e-07
sg1191
F0.812
sg1102
F1.0
sg1103
g1049
sbssg1113
I4
sg1114
I00
sg1115
g1116
sg1160
I960
sg1161
I0
sb(imeasurement.lib.pulsar.element
Element
p2119
(dp2120
g1046
I01
sg7
g616
sg1047
(dp2121
g1049
(dp2122
g1051
F2.56e-07
sg1052
F2.0
sg1053
g1054
sg1055
I0
sg1056
F0.0
ssg1057
(dp2123
g1051
F2e-07
sg1052
F1.0
sg1053
g1059
sg1055
F-1.0
sg1056
F0.0
ssg1060
(dp2124
g1051
F0.0
sg1052
F2.0
sg1053
g1054
sg1055
I0
sg1056
F0.0
ssg1062
(dp2125
g1051
F4.949999999999999e-07
sg1052
F1.0
sg1053
g1059
sg1055
F-1.0
sg1056
F0.01
ssg1064
(dp2126
g1051
F1.02e-07
sg1052
F2.0
sg1053
g1054
sg1055
I0
sg1056
F0.0
ssg1066
(dp2127
g1051
F2e-07
sg1052
F1.0
sg1053
g1059
sg1055
F-1.0
sg1056
F0.0
ssg1068
(dp2128
g1051
F1.82e-07
sg1052
F2.0
sg1053
g1054
sg1055
I0
sg1056
I0
ssg1070
(dp2129
g1051
F2e-07
sg1052
F0.5
sg1053
g1054
sg1055
F0.0
sg1056
F0.0
ssg1072
(dp2130
g1051
F2.79e-07
sg1052
F2.0
sg1053
g1059
sg1055
F-2.0
sg1056
F0.0
ssg1074
(dp2131
g1051
F0.0
sg1052
F2.0
sg1053
g1054
sg1055
F0.0
sg1056
F0.0
ssg1076
(dp2132
g1051
F2e-07
sg1052
F0.5
sg1053
g1054
sg1055
F0.0
sg1056
F0.0
sssg1078
F1000000000.0
sg1079
S'Wait: tau-1'
p2133
sg1081
(dp2134
g2133
(imeasurement.lib.pulsar.pulse
SquarePulse
p2135
(dp2136
g1086
Nsg7
g1223
sg1088
F2.4550000000000002e-06
sg1091
I0
sg1092
(lp2137
g1057
asg1101
F2.357e-06
sg1102
F0.0
sg1108
g1057
sg1087
I0
sbsS'Wait: tau-0'
p2138
(imeasurement.lib.pulsar.pulse
SquarePulse
p2139
(dp2140
g1086
Nsg7
g1223
sg1088
I0
sg1091
I0
sg1092
(lp2141
g1057
asg1101
F2.357e-06
sg1102
F0.0
sg1108
g1057
sg1087
I0
sbsS'Hermite pi-pulse-0'
p2142
(imeasurement.lib.pulsar.pulselib
HermitePulse_Envelope_IQ
p2143
(dp2144
g1086
Nsg1087
F5e-07
sg1088
F1.8570000000000002e-06
sg1089
I01
sg1090
F5e-07
sg1091
F5e-07
sg1092
(lp2145
g1057
ag1066
ag1049
asg1094
I0
sg1095
g1066
sg1096
F1e-08
sg1097
I0
sg1100
F5e-07
sg7
g1220
sg1188
I00
sg1189
F1.633659999999999e-08
sg1099
g1057
sg1101
F1.098e-06
sg1190
F5.49e-07
sg1191
F0.812
sg1102
F1.0
sg1103
g1049
sbssg1113
I4
sg1114
I00
sg1115
g1116
sg1160
I960
sg1161
I0
sb(imeasurement.lib.pulsar.element
Element
p2146
(dp2147
g1046
I01
sg7
g745
sg1047
(dp2148
g1049
(dp2149
g1051
F2.56e-07
sg1052
F2.0
sg1053
g1054
sg1055
I0
sg1056
F0.0
ssg1057
(dp2150
g1051
F2e-07
sg1052
F1.0
sg1053
g1059
sg1055
F-1.0
sg1056
F0.0
ssg1060
(dp2151
g1051
F0.0
sg1052
F2.0
sg1053
g1054
sg1055
I0
sg1056
F0.0
ssg1062
(dp2152
g1051
F4.949999999999999e-07
sg1052
F1.0
sg1053
g1059
sg1055
F-1.0
sg1056
F0.01
ssg1064
(dp2153
g1051
F1.02e-07
sg1052
F2.0
sg1053
g1054
sg1055
I0
sg1056
F0.0
ssg1066
(dp2154
g1051
F2e-07
sg1052
F1.0
sg1053
g1059
sg1055
F-1.0
sg1056
F0.0
ssg1068
(dp2155
g1051
F1.82e-07
sg1052
F2.0
sg1053
g1054
sg1055
I0
sg1056
I0
ssg1070
(dp2156
g1051
F2e-07
sg1052
F0.5
sg1053
g1054
sg1055
F0.0
sg1056
F0.0
ssg1072
(dp2157
g1051
F2.79e-07
sg1052
F2.0
sg1053
g1059
sg1055
F-2.0
sg1056
F0.0
ssg1074
(dp2158
g1051
F0.0
sg1052
F2.0
sg1053
g1054
sg1055
F0.0
sg1056
F0.0
ssg1076
(dp2159
g1051
F2e-07
sg1052
F0.5
sg1053
g1054
sg1055
F0.0
sg1056
F0.0
sssg1078
F1000000000.0
sg1079
S'delay-0'
p2160
sg1081
(dp2161
S'Wait: tau-0'
p2162
(imeasurement.lib.pulsar.pulse
SquarePulse
p2163
(dp2164
g1086
Nsg7
g1223
sg1088
I0
sg1091
I0
sg1092
(lp2165
g1057
asg1101
F2.357e-06
sg1102
F0.0
sg1108
g1057
sg1087
I0
sbsS'Hermite pi-pulse-0'
p2166
(imeasurement.lib.pulsar.pulselib
HermitePulse_Envelope_IQ
p2167
(dp2168
g1086
Nsg1087
F5e-07
sg1088
F1.8570000000000002e-06
sg1089
I01
sg1090
F5e-07
sg1091
F5e-07
sg1092
(lp2169
g1057
ag1066
ag1049
asg1094
I0
sg1095
g1066
sg1096
F1e-08
sg1097
I270
sg1100
F5e-07
sg7
g1220
sg1188
I00
sg1189
F1.633659999999999e-08
sg1099
g1057
sg1101
F1.098e-06
sg1190
F5.49e-07
sg1191
F0.812
sg1102
F1.0
sg1103
g1049
sbsg2160
(imeasurement.lib.pulsar.pulse
SquarePulse
p2170
(dp2171
g1086
Nsg7
g1051
sg1088
F2.4550000000000002e-06
sg1091
I0
sg1092
(lp2172
g1057
asg1101
F1.3569999999999999e-06
sg1102
F0.0
sg1108
g1057
sg1087
I0
sbssg1113
I4
sg1114
I00
sg1115
g1116
sg1160
I960
sg1161
I0
sb(imeasurement.lib.pulsar.element
Element
p2173
(dp2174
g1046
I01
sg7
g609
sg1047
(dp2175
g1049
(dp2176
g1051
F2.56e-07
sg1052
F2.0
sg1053
g1054
sg1055
I0
sg1056
F0.0
ssg1057
(dp2177
g1051
F2e-07
sg1052
F1.0
sg1053
g1059
sg1055
F-1.0
sg1056
F0.0
ssg1060
(dp2178
g1051
F0.0
sg1052
F2.0
sg1053
g1054
sg1055
I0
sg1056
F0.0
ssg1062
(dp2179
g1051
F4.949999999999999e-07
sg1052
F1.0
sg1053
g1059
sg1055
F-1.0
sg1056
F0.01
ssg1064
(dp2180
g1051
F1.02e-07
sg1052
F2.0
sg1053
g1054
sg1055
I0
sg1056
F0.0
ssg1066
(dp2181
g1051
F2e-07
sg1052
F1.0
sg1053
g1059
sg1055
F-1.0
sg1056
F0.0
ssg1068
(dp2182
g1051
F1.82e-07
sg1052
F2.0
sg1053
g1054
sg1055
I0
sg1056
I0
ssg1070
(dp2183
g1051
F2e-07
sg1052
F0.5
sg1053
g1054
sg1055
F0.0
sg1056
F0.0
ssg1072
(dp2184
g1051
F2.79e-07
sg1052
F2.0
sg1053
g1059
sg1055
F-2.0
sg1056
F0.0
ssg1074
(dp2185
g1051
F0.0
sg1052
F2.0
sg1053
g1054
sg1055
F0.0
sg1056
F0.0
ssg1076
(dp2186
g1051
F2e-07
sg1052
F0.5
sg1053
g1054
sg1055
F0.0
sg1056
F0.0
sssg1078
F1000000000.0
sg1079
S'Wait: tau-0'
p2187
sg1081
(dp2188
g2187
(imeasurement.lib.pulsar.pulse
SquarePulse
p2189
(dp2190
g1086
Nsg7
g1223
sg1088
I0
sg1091
I0
sg1092
(lp2191
g1057
asg1101
F1e-06
sg1102
F0.0
sg1108
g1057
sg1087
I0
sbssg1113
I4
sg1114
I00
sg1115
g1116
sg1160
I960
sg1161
I0
sb(imeasurement.lib.pulsar.element
Element
p2192
(dp2193
g1046
I01
sg7
g749
sg1047
(dp2194
g1049
(dp2195
g1051
F2.56e-07
sg1052
F2.0
sg1053
g1054
sg1055
I0
sg1056
F0.0
ssg1057
(dp2196
g1051
F2e-07
sg1052
F1.0
sg1053
g1059
sg1055
F-1.0
sg1056
F0.0
ssg1060
(dp2197
g1051
F0.0
sg1052
F2.0
sg1053
g1054
sg1055
I0
sg1056
F0.0
ssg1062
(dp2198
g1051
F4.949999999999999e-07
sg1052
F1.0
sg1053
g1059
sg1055
F-1.0
sg1056
F0.01
ssg1064
(dp2199
g1051
F1.02e-07
sg1052
F2.0
sg1053
g1054
sg1055
I0
sg1056
F0.0
ssg1066
(dp2200
g1051
F2e-07
sg1052
F1.0
sg1053
g1059
sg1055
F-1.0
sg1056
F0.0
ssg1068
(dp2201
g1051
F1.82e-07
sg1052
F2.0
sg1053
g1054
sg1055
I0
sg1056
I0
ssg1070
(dp2202
g1051
F2e-07
sg1052
F0.5
sg1053
g1054
sg1055
F0.0
sg1056
F0.0
ssg1072
(dp2203
g1051
F2.79e-07
sg1052
F2.0
sg1053
g1059
sg1055
F-2.0
sg1056
F0.0
ssg1074
(dp2204
g1051
F0.0
sg1052
F2.0
sg1053
g1054
sg1055
F0.0
sg1056
F0.0
ssg1076
(dp2205
g1051
F2e-07
sg1052
F0.5
sg1053
g1054
sg1055
F0.0
sg1056
F0.0
sssg1078
F1000000000.0
sg1079
S'wait fin T-0'
p2206
sg1081
(dp2207
S'wait in T-0'
p2208
(imeasurement.lib.pulsar.pulse
SquarePulse
p2209
(dp2210
g1086
Nsg7
g1181
sg1088
I0
sg1091
I0
sg1092
(lp2211
g1057
asg1101
F9.75e-07
sg1102
F0.0
sg1108
g1057
sg1087
I0
sbsS'Hermite Pi/2-pulse-0'
p2212
(imeasurement.lib.pulsar.pulselib
HermitePulse_Envelope_IQ
p2213
(dp2214
g1086
Nsg1087
F5e-07
sg1088
F4.75e-07
sg1089
I01
sg1090
F5e-07
sg1091
F5e-07
sg1092
(lp2215
g1057
ag1066
ag1049
asg1094
I0
sg1095
g1066
sg1096
F1e-08
sg1097
I90
sg1100
F5e-07
sg7
g1187
sg1188
I01
sg1189
F8.33499999999999e-09
sg1099
g1057
sg1101
F1.05e-06
sg1190
F5.25e-07
sg1191
F0.56
sg1102
F1.0
sg1103
g1049
sbsg2206
(imeasurement.lib.pulsar.pulse
SquarePulse
p2216
(dp2217
g1086
Nsg7
g1194
sg1088
F1.025e-06
sg1091
I0
sg1092
(lp2218
g1057
asg1101
F9.75e-07
sg1102
F0.0
sg1108
g1057
sg1087
I0
sbssg1113
I4
sg1114
I00
sg1115
g1116
sg1160
I960
sg1161
I0
sb(imeasurement.lib.pulsar.element
Element
p2219
(dp2220
g1046
I01
sg7
g751
sg1047
(dp2221
g1049
(dp2222
g1051
F2.56e-07
sg1052
F2.0
sg1053
g1054
sg1055
I0
sg1056
F0.0
ssg1057
(dp2223
g1051
F2e-07
sg1052
F1.0
sg1053
g1059
sg1055
F-1.0
sg1056
F0.0
ssg1060
(dp2224
g1051
F0.0
sg1052
F2.0
sg1053
g1054
sg1055
I0
sg1056
F0.0
ssg1062
(dp2225
g1051
F4.949999999999999e-07
sg1052
F1.0
sg1053
g1059
sg1055
F-1.0
sg1056
F0.01
ssg1064
(dp2226
g1051
F1.02e-07
sg1052
F2.0
sg1053
g1054
sg1055
I0
sg1056
F0.0
ssg1066
(dp2227
g1051
F2e-07
sg1052
F1.0
sg1053
g1059
sg1055
F-1.0
sg1056
F0.0
ssg1068
(dp2228
g1051
F1.82e-07
sg1052
F2.0
sg1053
g1054
sg1055
I0
sg1056
I0
ssg1070
(dp2229
g1051
F2e-07
sg1052
F0.5
sg1053
g1054
sg1055
F0.0
sg1056
F0.0
ssg1072
(dp2230
g1051
F2.79e-07
sg1052
F2.0
sg1053
g1059
sg1055
F-2.0
sg1056
F0.0
ssg1074
(dp2231
g1051
F0.0
sg1052
F2.0
sg1053
g1054
sg1055
F0.0
sg1056
F0.0
ssg1076
(dp2232
g1051
F2e-07
sg1052
F0.5
sg1053
g1054
sg1055
F0.0
sg1056
F0.0
sssg1078
F1000000000.0
sg1079
S'square pulse-0'
p2233
sg1081
(dp2234
g2233
(imeasurement.lib.pulsar.pulse
SquarePulse
p2235
(dp2236
g1086
Nsg7
g1106
sg1088
I0
sg1091
I0
sg1092
(lp2237
g1074
asg1101
F7.999999999999999e-05
sg1102
I2
sg1108
g1074
sg1087
I0
sbssg1113
I4
sg1114
I00
sg1115
g1116
sg1160
I960
sg1161
I0
sb(imeasurement.lib.pulsar.element
Element
p2238
(dp2239
g1046
I01
sg7
g752
sg1047
(dp2240
g1049
(dp2241
g1051
F2.56e-07
sg1052
F2.0
sg1053
g1054
sg1055
I0
sg1056
F0.0
ssg1057
(dp2242
g1051
F2e-07
sg1052
F1.0
sg1053
g1059
sg1055
F-1.0
sg1056
F0.0
ssg1060
(dp2243
g1051
F0.0
sg1052
F2.0
sg1053
g1054
sg1055
I0
sg1056
F0.0
ssg1062
(dp2244
g1051
F4.949999999999999e-07
sg1052
F1.0
sg1053
g1059
sg1055
F-1.0
sg1056
F0.01
ssg1064
(dp2245
g1051
F1.02e-07
sg1052
F2.0
sg1053
g1054
sg1055
I0
sg1056
F0.0
ssg1066
(dp2246
g1051
F2e-07
sg1052
F1.0
sg1053
g1059
sg1055
F-1.0
sg1056
F0.0
ssg1068
(dp2247
g1051
F1.82e-07
sg1052
F2.0
sg1053
g1054
sg1055
I0
sg1056
I0
ssg1070
(dp2248
g1051
F2e-07
sg1052
F0.5
sg1053
g1054
sg1055
F0.0
sg1056
F0.0
ssg1072
(dp2249
g1051
F2.79e-07
sg1052
F2.0
sg1053
g1059
sg1055
F-2.0
sg1056
F0.0
ssg1074
(dp2250
g1051
F0.0
sg1052
F2.0
sg1053
g1054
sg1055
F0.0
sg1056
F0.0
ssg1076
(dp2251
g1051
F2e-07
sg1052
F0.5
sg1053
g1054
sg1055
F0.0
sg1056
F0.0
sssg1078
F1000000000.0
sg1079
S'wait fin T-0'
p2252
sg1081
(dp2253
S'wait in T-0'
p2254
(imeasurement.lib.pulsar.pulse
SquarePulse
p2255
(dp2256
g1086
Nsg7
g1181
sg1088
I0
sg1091
I0
sg1092
(lp2257
g1057
asg1101
F1e-06
sg1102
F0.0
sg1108
g1057
sg1087
I0
sbsg2252
(imeasurement.lib.pulsar.pulse
SquarePulse
p2258
(dp2259
g1086
Nsg7
g1194
sg1088
F1e-06
sg1091
I0
sg1092
(lp2260
g1057
asg1101
F1e-06
sg1102
F0.0
sg1108
g1057
sg1087
I0
sbssg1113
I4
sg1114
I00
sg1115
g1116
sg1160
I960
sg1161
I0
sb(imeasurement.lib.pulsar.element
Element
p2261
(dp2262
g1046
I01
sg7
g755
sg1047
(dp2263
g1049
(dp2264
g1051
F2.56e-07
sg1052
F2.0
sg1053
g1054
sg1055
I0
sg1056
F0.0
ssg1057
(dp2265
g1051
F2e-07
sg1052
F1.0
sg1053
g1059
sg1055
F-1.0
sg1056
F0.0
ssg1060
(dp2266
g1051
F0.0
sg1052
F2.0
sg1053
g1054
sg1055
I0
sg1056
F0.0
ssg1062
(dp2267
g1051
F4.949999999999999e-07
sg1052
F1.0
sg1053
g1059
sg1055
F-1.0
sg1056
F0.01
ssg1064
(dp2268
g1051
F1.02e-07
sg1052
F2.0
sg1053
g1054
sg1055
I0
sg1056
F0.0
ssg1066
(dp2269
g1051
F2e-07
sg1052
F1.0
sg1053
g1059
sg1055
F-1.0
sg1056
F0.0
ssg1068
(dp2270
g1051
F1.82e-07
sg1052
F2.0
sg1053
g1054
sg1055
I0
sg1056
I0
ssg1070
(dp2271
g1051
F2e-07
sg1052
F0.5
sg1053
g1054
sg1055
F0.0
sg1056
F0.0
ssg1072
(dp2272
g1051
F2.79e-07
sg1052
F2.0
sg1053
g1059
sg1055
F-2.0
sg1056
F0.0
ssg1074
(dp2273
g1051
F0.0
sg1052
F2.0
sg1053
g1054
sg1055
F0.0
sg1056
F0.0
ssg1076
(dp2274
g1051
F2e-07
sg1052
F0.5
sg1053
g1054
sg1055
F0.0
sg1056
F0.0
sssg1078
F1000000000.0
sg1079
S'Wait: tau-0'
p2275
sg1081
(dp2276
S'delay-0'
p2277
(imeasurement.lib.pulsar.pulse
SquarePulse
p2278
(dp2279
g1086
Nsg7
g1051
sg1088
I0
sg1091
I0
sg1092
(lp2280
g1057
asg1101
F1.3569999999999999e-06
sg1102
F0.0
sg1108
g1057
sg1087
I0
sbsS'Hermite pi-pulse-0'
p2281
(imeasurement.lib.pulsar.pulselib
HermitePulse_Envelope_IQ
p2282
(dp2283
g1086
Nsg1087
F5e-07
sg1088
F8.569999999999999e-07
sg1089
I01
sg1090
F5e-07
sg1091
F5e-07
sg1092
(lp2284
g1057
ag1066
ag1049
asg1094
I0
sg1095
g1066
sg1096
F1e-08
sg1097
I90
sg1100
F5e-07
sg7
g1220
sg1188
I00
sg1189
F1.633659999999999e-08
sg1099
g1057
sg1101
F1.098e-06
sg1190
F5.49e-07
sg1191
F0.812
sg1102
F1.0
sg1103
g1049
sbsg2275
(imeasurement.lib.pulsar.pulse
SquarePulse
p2285
(dp2286
g1086
Nsg7
g1223
sg1088
F1.455e-06
sg1091
I0
sg1092
(lp2287
g1057
asg1101
F2.357e-06
sg1102
F0.0
sg1108
g1057
sg1087
I0
sbssg1113
I4
sg1114
I00
sg1115
g1116
sg1160
I960
sg1161
I0
sb(imeasurement.lib.pulsar.element
Element
p2288
(dp2289
g1046
I01
sg7
g768
sg1047
(dp2290
g1049
(dp2291
g1051
F2.56e-07
sg1052
F2.0
sg1053
g1054
sg1055
I0
sg1056
F0.0
ssg1057
(dp2292
g1051
F2e-07
sg1052
F1.0
sg1053
g1059
sg1055
F-1.0
sg1056
F0.0
ssg1060
(dp2293
g1051
F0.0
sg1052
F2.0
sg1053
g1054
sg1055
I0
sg1056
F0.0
ssg1062
(dp2294
g1051
F4.949999999999999e-07
sg1052
F1.0
sg1053
g1059
sg1055
F-1.0
sg1056
F0.01
ssg1064
(dp2295
g1051
F1.02e-07
sg1052
F2.0
sg1053
g1054
sg1055
I0
sg1056
F0.0
ssg1066
(dp2296
g1051
F2e-07
sg1052
F1.0
sg1053
g1059
sg1055
F-1.0
sg1056
F0.0
ssg1068
(dp2297
g1051
F1.82e-07
sg1052
F2.0
sg1053
g1054
sg1055
I0
sg1056
I0
ssg1070
(dp2298
g1051
F2e-07
sg1052
F0.5
sg1053
g1054
sg1055
F0.0
sg1056
F0.0
ssg1072
(dp2299
g1051
F2.79e-07
sg1052
F2.0
sg1053
g1059
sg1055
F-2.0
sg1056
F0.0
ssg1074
(dp2300
g1051
F0.0
sg1052
F2.0
sg1053
g1054
sg1055
F0.0
sg1056
F0.0
ssg1076
(dp2301
g1051
F2e-07
sg1052
F0.5
sg1053
g1054
sg1055
F0.0
sg1056
F0.0
sssg1078
F1000000000.0
sg1079
S'Wait: tau-1'
p2302
sg1081
(dp2303
g2302
(imeasurement.lib.pulsar.pulse
SquarePulse
p2304
(dp2305
g1086
Nsg7
g1223
sg1088
F2.4550000000000002e-06
sg1091
I0
sg1092
(lp2306
g1057
asg1101
F2.357e-06
sg1102
F0.0
sg1108
g1057
sg1087
I0
sbsS'Wait: tau-0'
p2307
(imeasurement.lib.pulsar.pulse
SquarePulse
p2308
(dp2309
g1086
Nsg7
g1223
sg1088
I0
sg1091
I0
sg1092
(lp2310
g1057
asg1101
F2.357e-06
sg1102
F0.0
sg1108
g1057
sg1087
I0
sbsS'Hermite pi-pulse-0'
p2311
(imeasurement.lib.pulsar.pulselib
HermitePulse_Envelope_IQ
p2312
(dp2313
g1086
Nsg1087
F5e-07
sg1088
F1.8570000000000002e-06
sg1089
I01
sg1090
F5e-07
sg1091
F5e-07
sg1092
(lp2314
g1057
ag1066
ag1049
asg1094
I0
sg1095
g1066
sg1096
F1e-08
sg1097
I90
sg1100
F5e-07
sg7
g1220
sg1188
I00
sg1189
F1.633659999999999e-08
sg1099
g1057
sg1101
F1.098e-06
sg1190
F5.49e-07
sg1191
F0.812
sg1102
F1.0
sg1103
g1049
sbssg1113
I4
sg1114
I00
sg1115
g1116
sg1160
I960
sg1161
I0
sb(imeasurement.lib.pulsar.element
Element
p2315
(dp2316
g1046
I01
sg7
g763
sg1047
(dp2317
g1049
(dp2318
g1051
F2.56e-07
sg1052
F2.0
sg1053
g1054
sg1055
I0
sg1056
F0.0
ssg1057
(dp2319
g1051
F2e-07
sg1052
F1.0
sg1053
g1059
sg1055
F-1.0
sg1056
F0.0
ssg1060
(dp2320
g1051
F0.0
sg1052
F2.0
sg1053
g1054
sg1055
I0
sg1056
F0.0
ssg1062
(dp2321
g1051
F4.949999999999999e-07
sg1052
F1.0
sg1053
g1059
sg1055
F-1.0
sg1056
F0.01
ssg1064
(dp2322
g1051
F1.02e-07
sg1052
F2.0
sg1053
g1054
sg1055
I0
sg1056
F0.0
ssg1066
(dp2323
g1051
F2e-07
sg1052
F1.0
sg1053
g1059
sg1055
F-1.0
sg1056
F0.0
ssg1068
(dp2324
g1051
F1.82e-07
sg1052
F2.0
sg1053
g1054
sg1055
I0
sg1056
I0
ssg1070
(dp2325
g1051
F2e-07
sg1052
F0.5
sg1053
g1054
sg1055
F0.0
sg1056
F0.0
ssg1072
(dp2326
g1051
F2.79e-07
sg1052
F2.0
sg1053
g1059
sg1055
F-2.0
sg1056
F0.0
ssg1074
(dp2327
g1051
F0.0
sg1052
F2.0
sg1053
g1054
sg1055
F0.0
sg1056
F0.0
ssg1076
(dp2328
g1051
F2e-07
sg1052
F0.5
sg1053
g1054
sg1055
F0.0
sg1056
F0.0
sssg1078
F1000000000.0
sg1079
S'Wait: tau-1'
p2329
sg1081
(dp2330
g2329
(imeasurement.lib.pulsar.pulse
SquarePulse
p2331
(dp2332
g1086
Nsg7
g1223
sg1088
F2.4550000000000002e-06
sg1091
I0
sg1092
(lp2333
g1057
asg1101
F2.357e-06
sg1102
F0.0
sg1108
g1057
sg1087
I0
sbsS'Wait: tau-0'
p2334
(imeasurement.lib.pulsar.pulse
SquarePulse
p2335
(dp2336
g1086
Nsg7
g1223
sg1088
I0
sg1091
I0
sg1092
(lp2337
g1057
asg1101
F2.357e-06
sg1102
F0.0
sg1108
g1057
sg1087
I0
sbsS'Hermite pi-pulse-0'
p2338
(imeasurement.lib.pulsar.pulselib
HermitePulse_Envelope_IQ
p2339
(dp2340
g1086
Nsg1087
F5e-07
sg1088
F1.8570000000000002e-06
sg1089
I01
sg1090
F5e-07
sg1091
F5e-07
sg1092
(lp2341
g1057
ag1066
ag1049
asg1094
I0
sg1095
g1066
sg1096
F1e-08
sg1097
I0
sg1100
F5e-07
sg7
g1220
sg1188
I00
sg1189
F1.633659999999999e-08
sg1099
g1057
sg1101
F1.098e-06
sg1190
F5.49e-07
sg1191
F0.812
sg1102
F1.0
sg1103
g1049
sbssg1113
I4
sg1114
I00
sg1115
g1116
sg1160
I960
sg1161
I0
sb(imeasurement.lib.pulsar.element
Element
p2342
(dp2343
g1046
I01
sg7
g892
sg1047
(dp2344
g1049
(dp2345
g1051
F2.56e-07
sg1052
F2.0
sg1053
g1054
sg1055
I0
sg1056
F0.0
ssg1057
(dp2346
g1051
F2e-07
sg1052
F1.0
sg1053
g1059
sg1055
F-1.0
sg1056
F0.0
ssg1060
(dp2347
g1051
F0.0
sg1052
F2.0
sg1053
g1054
sg1055
I0
sg1056
F0.0
ssg1062
(dp2348
g1051
F4.949999999999999e-07
sg1052
F1.0
sg1053
g1059
sg1055
F-1.0
sg1056
F0.01
ssg1064
(dp2349
g1051
F1.02e-07
sg1052
F2.0
sg1053
g1054
sg1055
I0
sg1056
F0.0
ssg1066
(dp2350
g1051
F2e-07
sg1052
F1.0
sg1053
g1059
sg1055
F-1.0
sg1056
F0.0
ssg1068
(dp2351
g1051
F1.82e-07
sg1052
F2.0
sg1053
g1054
sg1055
I0
sg1056
I0
ssg1070
(dp2352
g1051
F2e-07
sg1052
F0.5
sg1053
g1054
sg1055
F0.0
sg1056
F0.0
ssg1072
(dp2353
g1051
F2.79e-07
sg1052
F2.0
sg1053
g1059
sg1055
F-2.0
sg1056
F0.0
ssg1074
(dp2354
g1051
F0.0
sg1052
F2.0
sg1053
g1054
sg1055
F0.0
sg1056
F0.0
ssg1076
(dp2355
g1051
F2e-07
sg1052
F0.5
sg1053
g1054
sg1055
F0.0
sg1056
F0.0
sssg1078
F1000000000.0
sg1079
S'delay-0'
p2356
sg1081
(dp2357
S'Wait: tau-0'
p2358
(imeasurement.lib.pulsar.pulse
SquarePulse
p2359
(dp2360
g1086
Nsg7
g1223
sg1088
I0
sg1091
I0
sg1092
(lp2361
g1057
asg1101
F2.357e-06
sg1102
F0.0
sg1108
g1057
sg1087
I0
sbsS'Hermite pi-pulse-0'
p2362
(imeasurement.lib.pulsar.pulselib
HermitePulse_Envelope_IQ
p2363
(dp2364
g1086
Nsg1087
F5e-07
sg1088
F1.8570000000000002e-06
sg1089
I01
sg1090
F5e-07
sg1091
F5e-07
sg1092
(lp2365
g1057
ag1066
ag1049
asg1094
I0
sg1095
g1066
sg1096
F1e-08
sg1097
I270
sg1100
F5e-07
sg7
g1220
sg1188
I00
sg1189
F1.633659999999999e-08
sg1099
g1057
sg1101
F1.098e-06
sg1190
F5.49e-07
sg1191
F0.812
sg1102
F1.0
sg1103
g1049
sbsg2356
(imeasurement.lib.pulsar.pulse
SquarePulse
p2366
(dp2367
g1086
Nsg7
g1051
sg1088
F2.4550000000000002e-06
sg1091
I0
sg1092
(lp2368
g1057
asg1101
F1.3569999999999999e-06
sg1102
F0.0
sg1108
g1057
sg1087
I0
sbssg1113
I4
sg1114
I00
sg1115
g1116
sg1160
I960
sg1161
I0
sb(imeasurement.lib.pulsar.element
Element
p2369
(dp2370
g1046
I01
sg7
g756
sg1047
(dp2371
g1049
(dp2372
g1051
F2.56e-07
sg1052
F2.0
sg1053
g1054
sg1055
I0
sg1056
F0.0
ssg1057
(dp2373
g1051
F2e-07
sg1052
F1.0
sg1053
g1059
sg1055
F-1.0
sg1056
F0.0
ssg1060
(dp2374
g1051
F0.0
sg1052
F2.0
sg1053
g1054
sg1055
I0
sg1056
F0.0
ssg1062
(dp2375
g1051
F4.949999999999999e-07
sg1052
F1.0
sg1053
g1059
sg1055
F-1.0
sg1056
F0.01
ssg1064
(dp2376
g1051
F1.02e-07
sg1052
F2.0
sg1053
g1054
sg1055
I0
sg1056
F0.0
ssg1066
(dp2377
g1051
F2e-07
sg1052
F1.0
sg1053
g1059
sg1055
F-1.0
sg1056
F0.0
ssg1068
(dp2378
g1051
F1.82e-07
sg1052
F2.0
sg1053
g1054
sg1055
I0
sg1056
I0
ssg1070
(dp2379
g1051
F2e-07
sg1052
F0.5
sg1053
g1054
sg1055
F0.0
sg1056
F0.0
ssg1072
(dp2380
g1051
F2.79e-07
sg1052
F2.0
sg1053
g1059
sg1055
F-2.0
sg1056
F0.0
ssg1074
(dp2381
g1051
F0.0
sg1052
F2.0
sg1053
g1054
sg1055
F0.0
sg1056
F0.0
ssg1076
(dp2382
g1051
F2e-07
sg1052
F0.5
sg1053
g1054
sg1055
F0.0
sg1056
F0.0
sssg1078
F1000000000.0
sg1079
S'Wait: tau-0'
p2383
sg1081
(dp2384
g2383
(imeasurement.lib.pulsar.pulse
SquarePulse
p2385
(dp2386
g1086
Nsg7
g1223
sg1088
I0
sg1091
I0
sg1092
(lp2387
g1057
asg1101
F1e-06
sg1102
F0.0
sg1108
g1057
sg1087
I0
sbssg1113
I4
sg1114
I00
sg1115
g1116
sg1160
I960
sg1161
I0
sb(imeasurement.lib.pulsar.element
Element
p2388
(dp2389
g1046
I01
sg7
g896
sg1047
(dp2390
g1049
(dp2391
g1051
F2.56e-07
sg1052
F2.0
sg1053
g1054
sg1055
I0
sg1056
F0.0
ssg1057
(dp2392
g1051
F2e-07
sg1052
F1.0
sg1053
g1059
sg1055
F-1.0
sg1056
F0.0
ssg1060
(dp2393
g1051
F0.0
sg1052
F2.0
sg1053
g1054
sg1055
I0
sg1056
F0.0
ssg1062
(dp2394
g1051
F4.949999999999999e-07
sg1052
F1.0
sg1053
g1059
sg1055
F-1.0
sg1056
F0.01
ssg1064
(dp2395
g1051
F1.02e-07
sg1052
F2.0
sg1053
g1054
sg1055
I0
sg1056
F0.0
ssg1066
(dp2396
g1051
F2e-07
sg1052
F1.0
sg1053
g1059
sg1055
F-1.0
sg1056
F0.0
ssg1068
(dp2397
g1051
F1.82e-07
sg1052
F2.0
sg1053
g1054
sg1055
I0
sg1056
I0
ssg1070
(dp2398
g1051
F2e-07
sg1052
F0.5
sg1053
g1054
sg1055
F0.0
sg1056
F0.0
ssg1072
(dp2399
g1051
F2.79e-07
sg1052
F2.0
sg1053
g1059
sg1055
F-2.0
sg1056
F0.0
ssg1074
(dp2400
g1051
F0.0
sg1052
F2.0
sg1053
g1054
sg1055
F0.0
sg1056
F0.0
ssg1076
(dp2401
g1051
F2e-07
sg1052
F0.5
sg1053
g1054
sg1055
F0.0
sg1056
F0.0
sssg1078
F1000000000.0
sg1079
S'wait fin T-0'
p2402
sg1081
(dp2403
S'wait in T-0'
p2404
(imeasurement.lib.pulsar.pulse
SquarePulse
p2405
(dp2406
g1086
Nsg7
g1181
sg1088
I0
sg1091
I0
sg1092
(lp2407
g1057
asg1101
F2.9840000000000006e-06
sg1102
F0.0
sg1108
g1057
sg1087
I0
sbsS'Hermite Pi/2-pulse-0'
p2408
(imeasurement.lib.pulsar.pulselib
HermitePulse_Envelope_IQ
p2409
(dp2410
g1086
Nsg1087
F5e-07
sg1088
F2.4840000000000007e-06
sg1089
I01
sg1090
F5e-07
sg1091
F5e-07
sg1092
(lp2411
g1057
ag1066
ag1049
asg1094
I0
sg1095
g1066
sg1096
F1e-08
sg1097
I0
sg1100
F5e-07
sg7
g1187
sg1188
I01
sg1189
F8.33499999999999e-09
sg1099
g1057
sg1101
F1.05e-06
sg1190
F5.25e-07
sg1191
F0.56
sg1102
F1.0
sg1103
g1049
sbsg2402
(imeasurement.lib.pulsar.pulse
SquarePulse
p2412
(dp2413
g1086
Nsg7
g1194
sg1088
F3.0340000000000005e-06
sg1091
I0
sg1092
(lp2414
g1057
asg1101
F9.75e-07
sg1102
F0.0
sg1108
g1057
sg1087
I0
sbssg1113
I4
sg1114
I00
sg1115
g1116
sg1160
I960
sg1161
I0
sb(imeasurement.lib.pulsar.element
Element
p2415
(dp2416
g1046
I01
sg7
g898
sg1047
(dp2417
g1049
(dp2418
g1051
F2.56e-07
sg1052
F2.0
sg1053
g1054
sg1055
I0
sg1056
F0.0
ssg1057
(dp2419
g1051
F2e-07
sg1052
F1.0
sg1053
g1059
sg1055
F-1.0
sg1056
F0.0
ssg1060
(dp2420
g1051
F0.0
sg1052
F2.0
sg1053
g1054
sg1055
I0
sg1056
F0.0
ssg1062
(dp2421
g1051
F4.949999999999999e-07
sg1052
F1.0
sg1053
g1059
sg1055
F-1.0
sg1056
F0.01
ssg1064
(dp2422
g1051
F1.02e-07
sg1052
F2.0
sg1053
g1054
sg1055
I0
sg1056
F0.0
ssg1066
(dp2423
g1051
F2e-07
sg1052
F1.0
sg1053
g1059
sg1055
F-1.0
sg1056
F0.0
ssg1068
(dp2424
g1051
F1.82e-07
sg1052
F2.0
sg1053
g1054
sg1055
I0
sg1056
I0
ssg1070
(dp2425
g1051
F2e-07
sg1052
F0.5
sg1053
g1054
sg1055
F0.0
sg1056
F0.0
ssg1072
(dp2426
g1051
F2.79e-07
sg1052
F2.0
sg1053
g1059
sg1055
F-2.0
sg1056
F0.0
ssg1074
(dp2427
g1051
F0.0
sg1052
F2.0
sg1053
g1054
sg1055
F0.0
sg1056
F0.0
ssg1076
(dp2428
g1051
F2e-07
sg1052
F0.5
sg1053
g1054
sg1055
F0.0
sg1056
F0.0
sssg1078
F1000000000.0
sg1079
S'Wait: tau-0'
p2429
sg1081
(dp2430
S'delay-0'
p2431
(imeasurement.lib.pulsar.pulse
SquarePulse
p2432
(dp2433
g1086
Nsg7
g1051
sg1088
I0
sg1091
I0
sg1092
(lp2434
g1057
asg1101
F1.3569999999999999e-06
sg1102
F0.0
sg1108
g1057
sg1087
I0
sbsS'Hermite pi-pulse-0'
p2435
(imeasurement.lib.pulsar.pulselib
HermitePulse_Envelope_IQ
p2436
(dp2437
g1086
Nsg1087
F5e-07
sg1088
F8.569999999999999e-07
sg1089
I01
sg1090
F5e-07
sg1091
F5e-07
sg1092
(lp2438
g1057
ag1066
ag1049
asg1094
I0
sg1095
g1066
sg1096
F1e-08
sg1097
I90
sg1100
F5e-07
sg7
g1220
sg1188
I00
sg1189
F1.633659999999999e-08
sg1099
g1057
sg1101
F1.098e-06
sg1190
F5.49e-07
sg1191
F0.812
sg1102
F1.0
sg1103
g1049
sbsg2429
(imeasurement.lib.pulsar.pulse
SquarePulse
p2439
(dp2440
g1086
Nsg7
g1223
sg1088
F1.455e-06
sg1091
I0
sg1092
(lp2441
g1057
asg1101
F2.357e-06
sg1102
F0.0
sg1108
g1057
sg1087
I0
sbssg1113
I4
sg1114
I00
sg1115
g1116
sg1160
I960
sg1161
I0
sb(imeasurement.lib.pulsar.element
Element
p2442
(dp2443
g1046
I01
sg7
g911
sg1047
(dp2444
g1049
(dp2445
g1051
F2.56e-07
sg1052
F2.0
sg1053
g1054
sg1055
I0
sg1056
F0.0
ssg1057
(dp2446
g1051
F2e-07
sg1052
F1.0
sg1053
g1059
sg1055
F-1.0
sg1056
F0.0
ssg1060
(dp2447
g1051
F0.0
sg1052
F2.0
sg1053
g1054
sg1055
I0
sg1056
F0.0
ssg1062
(dp2448
g1051
F4.949999999999999e-07
sg1052
F1.0
sg1053
g1059
sg1055
F-1.0
sg1056
F0.01
ssg1064
(dp2449
g1051
F1.02e-07
sg1052
F2.0
sg1053
g1054
sg1055
I0
sg1056
F0.0
ssg1066
(dp2450
g1051
F2e-07
sg1052
F1.0
sg1053
g1059
sg1055
F-1.0
sg1056
F0.0
ssg1068
(dp2451
g1051
F1.82e-07
sg1052
F2.0
sg1053
g1054
sg1055
I0
sg1056
I0
ssg1070
(dp2452
g1051
F2e-07
sg1052
F0.5
sg1053
g1054
sg1055
F0.0
sg1056
F0.0
ssg1072
(dp2453
g1051
F2.79e-07
sg1052
F2.0
sg1053
g1059
sg1055
F-2.0
sg1056
F0.0
ssg1074
(dp2454
g1051
F0.0
sg1052
F2.0
sg1053
g1054
sg1055
F0.0
sg1056
F0.0
ssg1076
(dp2455
g1051
F2e-07
sg1052
F0.5
sg1053
g1054
sg1055
F0.0
sg1056
F0.0
sssg1078
F1000000000.0
sg1079
S'Wait: tau-1'
p2456
sg1081
(dp2457
g2456
(imeasurement.lib.pulsar.pulse
SquarePulse
p2458
(dp2459
g1086
Nsg7
g1223
sg1088
F2.4550000000000002e-06
sg1091
I0
sg1092
(lp2460
g1057
asg1101
F2.357e-06
sg1102
F0.0
sg1108
g1057
sg1087
I0
sbsS'Wait: tau-0'
p2461
(imeasurement.lib.pulsar.pulse
SquarePulse
p2462
(dp2463
g1086
Nsg7
g1223
sg1088
I0
sg1091
I0
sg1092
(lp2464
g1057
asg1101
F2.357e-06
sg1102
F0.0
sg1108
g1057
sg1087
I0
sbsS'Hermite pi-pulse-0'
p2465
(imeasurement.lib.pulsar.pulselib
HermitePulse_Envelope_IQ
p2466
(dp2467
g1086
Nsg1087
F5e-07
sg1088
F1.8570000000000002e-06
sg1089
I01
sg1090
F5e-07
sg1091
F5e-07
sg1092
(lp2468
g1057
ag1066
ag1049
asg1094
I0
sg1095
g1066
sg1096
F1e-08
sg1097
I90
sg1100
F5e-07
sg7
g1220
sg1188
I00
sg1189
F1.633659999999999e-08
sg1099
g1057
sg1101
F1.098e-06
sg1190
F5.49e-07
sg1191
F0.812
sg1102
F1.0
sg1103
g1049
sbssg1113
I4
sg1114
I00
sg1115
g1116
sg1160
I960
sg1161
I0
sb(imeasurement.lib.pulsar.element
Element
p2469
(dp2470
g1046
I01
sg7
g906
sg1047
(dp2471
g1049
(dp2472
g1051
F2.56e-07
sg1052
F2.0
sg1053
g1054
sg1055
I0
sg1056
F0.0
ssg1057
(dp2473
g1051
F2e-07
sg1052
F1.0
sg1053
g1059
sg1055
F-1.0
sg1056
F0.0
ssg1060
(dp2474
g1051
F0.0
sg1052
F2.0
sg1053
g1054
sg1055
I0
sg1056
F0.0
ssg1062
(dp2475
g1051
F4.949999999999999e-07
sg1052
F1.0
sg1053
g1059
sg1055
F-1.0
sg1056
F0.01
ssg1064
(dp2476
g1051
F1.02e-07
sg1052
F2.0
sg1053
g1054
sg1055
I0
sg1056
F0.0
ssg1066
(dp2477
g1051
F2e-07
sg1052
F1.0
sg1053
g1059
sg1055
F-1.0
sg1056
F0.0
ssg1068
(dp2478
g1051
F1.82e-07
sg1052
F2.0
sg1053
g1054
sg1055
I0
sg1056
I0
ssg1070
(dp2479
g1051
F2e-07
sg1052
F0.5
sg1053
g1054
sg1055
F0.0
sg1056
F0.0
ssg1072
(dp2480
g1051
F2.79e-07
sg1052
F2.0
sg1053
g1059
sg1055
F-2.0
sg1056
F0.0
ssg1074
(dp2481
g1051
F0.0
sg1052
F2.0
sg1053
g1054
sg1055
F0.0
sg1056
F0.0
ssg1076
(dp2482
g1051
F2e-07
sg1052
F0.5
sg1053
g1054
sg1055
F0.0
sg1056
F0.0
sssg1078
F1000000000.0
sg1079
S'Wait: tau-1'
p2483
sg1081
(dp2484
g2483
(imeasurement.lib.pulsar.pulse
SquarePulse
p2485
(dp2486
g1086
Nsg7
g1223
sg1088
F2.4550000000000002e-06
sg1091
I0
sg1092
(lp2487
g1057
asg1101
F2.357e-06
sg1102
F0.0
sg1108
g1057
sg1087
I0
sbsS'Wait: tau-0'
p2488
(imeasurement.lib.pulsar.pulse
SquarePulse
p2489
(dp2490
g1086
Nsg7
g1223
sg1088
I0
sg1091
I0
sg1092
(lp2491
g1057
asg1101
F2.357e-06
sg1102
F0.0
sg1108
g1057
sg1087
I0
sbsS'Hermite pi-pulse-0'
p2492
(imeasurement.lib.pulsar.pulselib
HermitePulse_Envelope_IQ
p2493
(dp2494
g1086
Nsg1087
F5e-07
sg1088
F1.8570000000000002e-06
sg1089
I01
sg1090
F5e-07
sg1091
F5e-07
sg1092
(lp2495
g1057
ag1066
ag1049
asg1094
I0
sg1095
g1066
sg1096
F1e-08
sg1097
I0
sg1100
F5e-07
sg7
g1220
sg1188
I00
sg1189
F1.633659999999999e-08
sg1099
g1057
sg1101
F1.098e-06
sg1190
F5.49e-07
sg1191
F0.812
sg1102
F1.0
sg1103
g1049
sbssg1113
I4
sg1114
I00
sg1115
g1116
sg1160
I960
sg1161
I0
sb(imeasurement.lib.pulsar.element
Element
p2496
(dp2497
g1046
I01
sg7
g1035
sg1047
(dp2498
g1049
(dp2499
g1051
F2.56e-07
sg1052
F2.0
sg1053
g1054
sg1055
I0
sg1056
F0.0
ssg1057
(dp2500
g1051
F2e-07
sg1052
F1.0
sg1053
g1059
sg1055
F-1.0
sg1056
F0.0
ssg1060
(dp2501
g1051
F0.0
sg1052
F2.0
sg1053
g1054
sg1055
I0
sg1056
F0.0
ssg1062
(dp2502
g1051
F4.949999999999999e-07
sg1052
F1.0
sg1053
g1059
sg1055
F-1.0
sg1056
F0.01
ssg1064
(dp2503
g1051
F1.02e-07
sg1052
F2.0
sg1053
g1054
sg1055
I0
sg1056
F0.0
ssg1066
(dp2504
g1051
F2e-07
sg1052
F1.0
sg1053
g1059
sg1055
F-1.0
sg1056
F0.0
ssg1068
(dp2505
g1051
F1.82e-07
sg1052
F2.0
sg1053
g1054
sg1055
I0
sg1056
I0
ssg1070
(dp2506
g1051
F2e-07
sg1052
F0.5
sg1053
g1054
sg1055
F0.0
sg1056
F0.0
ssg1072
(dp2507
g1051
F2.79e-07
sg1052
F2.0
sg1053
g1059
sg1055
F-2.0
sg1056
F0.0
ssg1074
(dp2508
g1051
F0.0
sg1052
F2.0
sg1053
g1054
sg1055
F0.0
sg1056
F0.0
ssg1076
(dp2509
g1051
F2e-07
sg1052
F0.5
sg1053
g1054
sg1055
F0.0
sg1056
F0.0
sssg1078
F1000000000.0
sg1079
S'delay-0'
p2510
sg1081
(dp2511
S'Wait: tau-0'
p2512
(imeasurement.lib.pulsar.pulse
SquarePulse
p2513
(dp2514
g1086
Nsg7
g1223
sg1088
I0
sg1091
I0
sg1092
(lp2515
g1057
asg1101
F2.357e-06
sg1102
F0.0
sg1108
g1057
sg1087
I0
sbsS'Hermite pi-pulse-0'
p2516
(imeasurement.lib.pulsar.pulselib
HermitePulse_Envelope_IQ
p2517
(dp2518
g1086
Nsg1087
F5e-07
sg1088
F1.8570000000000002e-06
sg1089
I01
sg1090
F5e-07
sg1091
F5e-07
sg1092
(lp2519
g1057
ag1066
ag1049
asg1094
I0
sg1095
g1066
sg1096
F1e-08
sg1097
I270
sg1100
F5e-07
sg7
g1220
sg1188
I00
sg1189
F1.633659999999999e-08
sg1099
g1057
sg1101
F1.098e-06
sg1190
F5.49e-07
sg1191
F0.812
sg1102
F1.0
sg1103
g1049
sbsg2510
(imeasurement.lib.pulsar.pulse
SquarePulse
p2520
(dp2521
g1086
Nsg7
g1051
sg1088
F2.4550000000000002e-06
sg1091
I0
sg1092
(lp2522
g1057
asg1101
F1.3569999999999999e-06
sg1102
F0.0
sg1108
g1057
sg1087
I0
sbssg1113
I4
sg1114
I00
sg1115
g1116
sg1160
I960
sg1161
I0
sb(imeasurement.lib.pulsar.element
Element
p2523
(dp2524
g1046
I01
sg7
g899
sg1047
(dp2525
g1049
(dp2526
g1051
F2.56e-07
sg1052
F2.0
sg1053
g1054
sg1055
I0
sg1056
F0.0
ssg1057
(dp2527
g1051
F2e-07
sg1052
F1.0
sg1053
g1059
sg1055
F-1.0
sg1056
F0.0
ssg1060
(dp2528
g1051
F0.0
sg1052
F2.0
sg1053
g1054
sg1055
I0
sg1056
F0.0
ssg1062
(dp2529
g1051
F4.949999999999999e-07
sg1052
F1.0
sg1053
g1059
sg1055
F-1.0
sg1056
F0.01
ssg1064
(dp2530
g1051
F1.02e-07
sg1052
F2.0
sg1053
g1054
sg1055
I0
sg1056
F0.0
ssg1066
(dp2531
g1051
F2e-07
sg1052
F1.0
sg1053
g1059
sg1055
F-1.0
sg1056
F0.0
ssg1068
(dp2532
g1051
F1.82e-07
sg1052
F2.0
sg1053
g1054
sg1055
I0
sg1056
I0
ssg1070
(dp2533
g1051
F2e-07
sg1052
F0.5
sg1053
g1054
sg1055
F0.0
sg1056
F0.0
ssg1072
(dp2534
g1051
F2.79e-07
sg1052
F2.0
sg1053
g1059
sg1055
F-2.0
sg1056
F0.0
ssg1074
(dp2535
g1051
F0.0
sg1052
F2.0
sg1053
g1054
sg1055
F0.0
sg1056
F0.0
ssg1076
(dp2536
g1051
F2e-07
sg1052
F0.5
sg1053
g1054
sg1055
F0.0
sg1056
F0.0
sssg1078
F1000000000.0
sg1079
S'Wait: tau-0'
p2537
sg1081
(dp2538
g2537
(imeasurement.lib.pulsar.pulse
SquarePulse
p2539
(dp2540
g1086
Nsg7
g1223
sg1088
I0
sg1091
I0
sg1092
(lp2541
g1057
asg1101
F1e-06
sg1102
F0.0
sg1108
g1057
sg1087
I0
sbssg1113
I4
sg1114
I00
sg1115
g1116
sg1160
I960
sg1161
I0
sb(imeasurement.lib.pulsar.element
Element
p2542
(dp2543
g1046
I01
sg7
g1039
sg1047
(dp2544
g1049
(dp2545
g1051
F2.56e-07
sg1052
F2.0
sg1053
g1054
sg1055
I0
sg1056
F0.0
ssg1057
(dp2546
g1051
F2e-07
sg1052
F1.0
sg1053
g1059
sg1055
F-1.0
sg1056
F0.0
ssg1060
(dp2547
g1051
F0.0
sg1052
F2.0
sg1053
g1054
sg1055
I0
sg1056
F0.0
ssg1062
(dp2548
g1051
F4.949999999999999e-07
sg1052
F1.0
sg1053
g1059
sg1055
F-1.0
sg1056
F0.01
ssg1064
(dp2549
g1051
F1.02e-07
sg1052
F2.0
sg1053
g1054
sg1055
I0
sg1056
F0.0
ssg1066
(dp2550
g1051
F2e-07
sg1052
F1.0
sg1053
g1059
sg1055
F-1.0
sg1056
F0.0
ssg1068
(dp2551
g1051
F1.82e-07
sg1052
F2.0
sg1053
g1054
sg1055
I0
sg1056
I0
ssg1070
(dp2552
g1051
F2e-07
sg1052
F0.5
sg1053
g1054
sg1055
F0.0
sg1056
F0.0
ssg1072
(dp2553
g1051
F2.79e-07
sg1052
F2.0
sg1053
g1059
sg1055
F-2.0
sg1056
F0.0
ssg1074
(dp2554
g1051
F0.0
sg1052
F2.0
sg1053
g1054
sg1055
F0.0
sg1056
F0.0
ssg1076
(dp2555
g1051
F2e-07
sg1052
F0.5
sg1053
g1054
sg1055
F0.0
sg1056
F0.0
sssg1078
F1000000000.0
sg1079
S'wait fin T-0'
p2556
sg1081
(dp2557
S'wait in T-0'
p2558
(imeasurement.lib.pulsar.pulse
SquarePulse
p2559
(dp2560
g1086
Nsg7
g1181
sg1088
I0
sg1091
I0
sg1092
(lp2561
g1057
asg1101
F9.75e-07
sg1102
F0.0
sg1108
g1057
sg1087
I0
sbsS'Hermite Pi/2-pulse-0'
p2562
(imeasurement.lib.pulsar.pulselib
HermitePulse_Envelope_IQ
p2563
(dp2564
g1086
Nsg1087
F5e-07
sg1088
F4.75e-07
sg1089
I01
sg1090
F5e-07
sg1091
F5e-07
sg1092
(lp2565
g1057
ag1066
ag1049
asg1094
I0
sg1095
g1066
sg1096
F1e-08
sg1097
g1549
(g1553
S'Z\x00\x00\x00'
p2566
tp2567
Rp2568
sg1100
F5e-07
sg7
g1187
sg1188
I01
sg1189
F8.33499999999999e-09
sg1099
g1057
sg1101
F1.05e-06
sg1190
F5.25e-07
sg1191
F0.56
sg1102
F1.0
sg1103
g1049
sbsg2556
(imeasurement.lib.pulsar.pulse
SquarePulse
p2569
(dp2570
g1086
Nsg7
g1194
sg1088
F1.025e-06
sg1091
I0
sg1092
(lp2571
g1057
asg1101
F9.75e-07
sg1102
F0.0
sg1108
g1057
sg1087
I0
sbssg1113
I4
sg1114
I00
sg1115
g1116
sg1160
I960
sg1161
I0
sb(imeasurement.lib.pulsar.element
Element
p2572
(dp2573
g1046
I01
sg7
g1041
sg1047
(dp2574
g1049
(dp2575
g1051
F2.56e-07
sg1052
F2.0
sg1053
g1054
sg1055
I0
sg1056
F0.0
ssg1057
(dp2576
g1051
F2e-07
sg1052
F1.0
sg1053
g1059
sg1055
F-1.0
sg1056
F0.0
ssg1060
(dp2577
g1051
F0.0
sg1052
F2.0
sg1053
g1054
sg1055
I0
sg1056
F0.0
ssg1062
(dp2578
g1051
F4.949999999999999e-07
sg1052
F1.0
sg1053
g1059
sg1055
F-1.0
sg1056
F0.01
ssg1064
(dp2579
g1051
F1.02e-07
sg1052
F2.0
sg1053
g1054
sg1055
I0
sg1056
F0.0
ssg1066
(dp2580
g1051
F2e-07
sg1052
F1.0
sg1053
g1059
sg1055
F-1.0
sg1056
F0.0
ssg1068
(dp2581
g1051
F1.82e-07
sg1052
F2.0
sg1053
g1054
sg1055
I0
sg1056
I0
ssg1070
(dp2582
g1051
F2e-07
sg1052
F0.5
sg1053
g1054
sg1055
F0.0
sg1056
F0.0
ssg1072
(dp2583
g1051
F2.79e-07
sg1052
F2.0
sg1053
g1059
sg1055
F-2.0
sg1056
F0.0
ssg1074
(dp2584
g1051
F0.0
sg1052
F2.0
sg1053
g1054
sg1055
F0.0
sg1056
F0.0
ssg1076
(dp2585
g1051
F2e-07
sg1052
F0.5
sg1053
g1054
sg1055
F0.0
sg1056
F0.0
sssg1078
F1000000000.0
sg1079
S'square pulse-0'
p2586
sg1081
(dp2587
g2586
(imeasurement.lib.pulsar.pulse
SquarePulse
p2588
(dp2589
g1086
Nsg7
g1106
sg1088
I0
sg1091
I0
sg1092
(lp2590
g1074
asg1101
F1e-05
sg1102
I2
sg1108
g1074
sg1087
I0
sbssg1113
I4
sg1114
I00
sg1115
g1116
sg1160
I960
sg1161
I0
sbtp2591
a.